(dp0
S'1200'
p1
I8000
sS'643'
p2
I1900
sS'344'
p3
I0
sS'345'
p4
I2700
sS'346'
p5
I1300
sS'340'
p6
I1750
sS'341'
p7
I1950
sS'342'
p8
I3600
sS'343'
p9
I800
sS'348'
p10
I0
sS'349'
p11
I2700
sS'298'
p12
I7800
sS'299'
p13
I0
sS'296'
p14
I1750
sS'297'
p15
I1950
sS'294'
p16
I7800
sS'295'
p17
I950
sS'292'
p18
I3900
sS'293'
p19
I3680
sS'290'
p20
I1950
sS'291'
p21
I1750
sS'271'
p22
I1800
sS'272'
p23
I2850
sS'273'
p24
I3000
sS'274'
p25
I800
sS'275'
p26
I7600
sS'276'
p27
I2800
sS'277'
p28
I2800
sS'278'
p29
I9500
sS'279'
p30
I3700
sS'1004'
p31
I8000
sS'108'
p32
I800
sS'109'
p33
I1900
sS'102'
p34
I0
sS'103'
p35
I5700
sS'100'
p36
I2940
sS'101'
p37
I1900
sS'106'
p38
I3800
sS'107'
p39
I2000
sS'104'
p40
I1800
sS'105'
p41
I1960
sS'1212'
p42
I0
sS'1213'
p43
I4000
sS'99'
p44
I1950
sS'98'
p45
I2000
sS'91'
p46
I3000
sS'90'
p47
I6000
sS'93'
p48
I1800
sS'92'
p49
I800
sS'94'
p50
I3900
sS'97'
p51
I0
sS'96'
p52
I6000
sS'1623'
p53
I7800
sS'1622'
p54
I0
sS'1621'
p55
I3900
sS'1620'
p56
I1400
sS'1627'
p57
I3800
sS'1626'
p58
I5700
sS'1625'
p59
I7800
sS'1624'
p60
I1400
sS'1629'
p61
I4000
sS'1628'
p62
I4000
sS'559'
p63
I3680
sS'558'
p64
I3680
sS'1217'
p65
I950
sS'555'
p66
I4000
sS'557'
p67
I8000
sS'556'
p68
I3900
sS'551'
p69
I850
sS'550'
p70
I6000
sS'553'
p71
I8000
sS'552'
p72
I8000
sS'1199'
p73
I6000
sS'1198'
p74
I4000
sS'1193'
p75
I5850
sS'1195'
p76
I7800
sS'1194'
p77
I5850
sS'1197'
p78
I10000
sS'1196'
p79
I7800
sS'1759'
p80
I1900
sS'1758'
p81
I1900
sS'1757'
p82
I950
sS'1756'
p83
I3800
sS'1755'
p84
I1900
sS'1754'
p85
I3800
sS'1753'
p86
I3800
sS'1752'
p87
I3800
sS'1751'
p88
I3800
sS'1750'
p89
I3800
sS'1177'
p90
I7800
sS'1176'
p91
I7800
sS'1175'
p92
I7800
sS'1174'
p93
I7800
sS'1173'
p94
I7800
sS'1172'
p95
I7800
sS'1171'
p96
I7800
sS'1170'
p97
I7800
sS'1179'
p98
I7800
sS'1178'
p99
I7800
sS'1007'
p100
I1800
sS'1006'
p101
I850
sS'1285'
p102
I1900
sS'1284'
p103
I3800
sS'1287'
p104
I2000
sS'1286'
p105
I1900
sS'1281'
p106
I1900
sS'1280'
p107
I2000
sS'1283'
p108
I5850
sS'1282'
p109
I2000
sS'515'
p110
I2000
sS'1289'
p111
I2000
sS'1288'
p112
I6000
sS'514'
p113
I2000
sS'1579'
p114
I3600
sS'1578'
p115
I0
sS'689'
p116
I4000
sS'688'
p117
I0
sS'1573'
p118
I3900
sS'684'
p119
I1400
sS'687'
p120
I2700
sS'686'
p121
I3600
sS'681'
p122
I2800
sS'1576'
p123
I3000
sS'683'
p124
I3600
sS'682'
p125
I3600
sS'1348'
p126
I6000
sS'1226'
p127
I1900
sS'1240'
p128
I8000
sS'1225'
p129
I850
sS'627'
p130
I850
sS'626'
p131
I800
sS'1221'
p132
I8000
sS'624'
p133
I0
sS'407'
p134
I5850
sS'406'
p135
I3800
sS'1373'
p136
I2000
sS'1372'
p137
I1950
sS'1375'
p138
I4000
sS'1374'
p139
I4000
sS'1377'
p140
I1840
sS'1376'
p141
I6000
sS'1379'
p142
I5850
sS'1378'
p143
I0
sS'409'
p144
I1900
sS'408'
p145
I2850
sS'453'
p146
I5700
sS'1344'
p147
I4000
sS'1345'
p148
I5700
sS'1346'
p149
I8000
sS'379'
p150
I2800
sS'378'
p151
I1950
sS'647'
p152
I0
sS'371'
p153
I2850
sS'370'
p154
I7800
sS'373'
p155
I1800
sS'372'
p156
I1800
sS'375'
p157
I850
sS'374'
p158
I7800
sS'377'
p159
I1950
sS'376'
p160
I3800
sS'393'
p161
I0
sS'392'
p162
I2700
sS'391'
p163
I7800
sS'390'
p164
I7800
sS'397'
p165
I3800
sS'396'
p166
I1400
sS'395'
p167
I1400
sS'394'
p168
I1400
sS'399'
p169
I1900
sS'398'
p170
I3800
sS'1246'
p171
I5850
sS'245'
p172
I3500
sS'244'
p173
I5850
sS'247'
p174
I850
sS'246'
p175
I950
sS'241'
p176
I7600
sS'240'
p177
I9500
sS'243'
p178
I1950
sS'242'
p179
I1800
sS'249'
p180
I1800
sS'248'
p181
I1750
sS'179'
p182
I1950
sS'178'
p183
I0
sS'177'
p184
I2700
sS'176'
p185
I5700
sS'175'
p186
I3800
sS'174'
p187
I4350
sS'173'
p188
I2850
sS'172'
p189
I5850
sS'171'
p190
I1600
sS'170'
p191
I1900
sS'656'
p192
I3000
sS'657'
p193
I1800
sS'654'
p194
I6000
sS'655'
p195
I6000
sS'1506'
p196
I3900
sS'653'
p197
I850
sS'651'
p198
I1800
sS'659'
p199
I7800
sS'1362'
p200
I6000
sS'1618'
p201
I3060
sS'1619'
p202
I3800
sS'1616'
p203
I950
sS'1617'
p204
I950
sS'1615'
p205
I3900
sS'1612'
p206
I950
sS'1613'
p207
I4000
sS'1610'
p208
I3600
sS'1611'
p209
I3900
sS'1363'
p210
I2850
sS'1768'
p211
I3800
sS'1762'
p212
I1800
sS'1763'
p213
I3800
sS'1760'
p214
I950
sS'1761'
p215
I5850
sS'1766'
p216
I1900
sS'1767'
p217
I3900
sS'1764'
p218
I950
sS'1765'
p219
I0
sS'1142'
p220
I4000
sS'1143'
p221
I6000
sS'1140'
p222
I8000
sS'1141'
p223
I8000
sS'1146'
p224
I7800
sS'1147'
p225
I0
sS'1144'
p226
I7800
sS'1145'
p227
I7800
sS'1148'
p228
I7800
sS'1149'
p229
I7800
sS'692'
p230
I2850
sS'693'
p231
I1400
sS'690'
p232
I7800
sS'691'
p233
I7800
sS'1542'
p234
I1960
sS'1543'
p235
I3900
sS'694'
p236
I7800
sS'1541'
p237
I800
sS'698'
p238
I9750
sS'699'
p239
I8000
sS'1548'
p240
I1400
sS'1549'
p241
I1500
sS'542'
p242
I6000
sS'543'
p243
I2000
sS'540'
p244
I5850
sS'541'
p245
I9750
sS'547'
p246
I7800
sS'544'
p247
I7800
sS'545'
p248
I1800
sS'548'
p249
I7800
sS'549'
p250
I6000
sS'1782'
p251
I850
sS'761'
p252
I7800
sS'766'
p253
I3600
sS'1785'
p254
I5850
sS'765'
p255
I3600
sS'414'
p256
I1950
sS'415'
p257
I1800
sS'416'
p258
I7800
sS'417'
p259
I1950
sS'410'
p260
I5850
sS'411'
p261
I7800
sS'412'
p262
I1500
sS'413'
p263
I650
sS'1385'
p264
I2000
sS'1386'
p265
I0
sS'1387'
p266
I4000
sS'1380'
p267
I6000
sS'419'
p268
I3800
sS'1382'
p269
I850
sS'1383'
p270
I850
sS'369'
p271
I7800
sS'366'
p272
I2700
sS'367'
p273
I1950
sS'364'
p274
I1950
sS'365'
p275
I1950
sS'362'
p276
I2700
sS'363'
p277
I3700
sS'360'
p278
I1900
sS'361'
p279
I4500
sS'380'
p280
I800
sS'381'
p281
I1950
sS'382'
p282
I7600
sS'383'
p283
I5850
sS'384'
p284
I1950
sS'385'
p285
I1950
sS'386'
p286
I1750
sS'387'
p287
I2850
sS'388'
p288
I3800
sS'389'
p289
I9750
sS'1253'
p290
I8000
sS'258'
p291
I1900
sS'252'
p292
I650
sS'253'
p293
I6000
sS'250'
p294
I0
sS'251'
p295
I3500
sS'256'
p296
I9500
sS'257'
p297
I0
sS'254'
p298
I5850
sS'255'
p299
I7600
sS'1849'
p300
I3900
sS'1848'
p301
I1950
sS'168'
p302
I2850
sS'169'
p303
I1900
sS'164'
p304
I4350
sS'165'
p305
I4000
sS'166'
p306
I0
sS'167'
p307
I1400
sS'160'
p308
I3800
sS'161'
p309
I3800
sS'162'
p310
I2000
sS'163'
p311
I3800
sS'1841'
p312
I1530
sS'1840'
p313
I3900
sS'1090'
p314
I5850
sS'1091'
p315
I0
sS'1814'
p316
I0
sS'1815'
p317
I0
sS'1816'
p318
I0
sS'1817'
p319
I3900
sS'1810'
p320
I0
sS'1811'
p321
I5850
sS'1812'
p322
I0
sS'1813'
p323
I1900
sS'1818'
p324
I3900
sS'1819'
p325
I3800
sS'1098'
p326
I1900
sS'671'
p327
I9750
sS'1609'
p328
I1400
sS'1608'
p329
I3900
sS'1601'
p330
I950
sS'1600'
p331
I950
sS'1603'
p332
I3900
sS'1602'
p333
I1800
sS'1604'
p334
I950
sS'1607'
p335
I4000
sS'808'
p336
I3900
sS'803'
p337
I8000
sS'802'
p338
I3900
sS'801'
p339
I0
sS'800'
p340
I1400
sS'807'
p341
I5850
sS'806'
p342
I1400
sS'805'
p343
I6000
sS'804'
p344
I3900
sS'1775'
p345
I3900
sS'1774'
p346
I4000
sS'1777'
p347
I950
sS'1776'
p348
I3900
sS'1771'
p349
I3900
sS'1770'
p350
I3900
sS'1772'
p351
I3800
sS'1779'
p352
I1400
sS'1778'
p353
I3000
sS'1159'
p354
I1900
sS'1158'
p355
I7800
sS'1155'
p356
I7800
sS'1154'
p357
I9750
sS'1157'
p358
I7800
sS'1156'
p359
I9750
sS'1151'
p360
I1800
sS'1150'
p361
I1800
sS'1153'
p362
I7800
sS'1152'
p363
I7800
sS'59'
p364
I0
sS'58'
p365
I3000
sS'1551'
p366
I4000
sS'1553'
p367
I1400
sS'1552'
p368
I0
sS'1555'
p369
I800
sS'1554'
p370
I1800
sS'1557'
p371
I4000
sS'1556'
p372
I950
sS'1559'
p373
I3060
sS'54'
p374
I800
sS'57'
p375
I950
sS'56'
p376
I1950
sS'51'
p377
I0
sS'50'
p378
I1600
sS'53'
p379
I0
sS'52'
p380
I1900
sS'537'
p381
I8000
sS'536'
p382
I0
sS'535'
p383
I1800
sS'534'
p384
I1960
sS'533'
p385
I9750
sS'532'
p386
I6000
sS'531'
p387
I5850
sS'530'
p388
I1900
sS'539'
p389
I5850
sS'1558'
p390
I7800
sS'429'
p391
I7800
sS'1399'
p392
I5850
sS'1398'
p393
I2800
sS'421'
p394
I1600
sS'420'
p395
I1800
sS'423'
p396
I5850
sS'422'
p397
I3900
sS'425'
p398
I1800
sS'424'
p399
I1750
sS'427'
p400
I7600
sS'426'
p401
I850
sS'229'
p402
I2800
sS'228'
p403
I9500
sS'227'
p404
I1450
sS'226'
p405
I1900
sS'225'
p406
I1300
sS'224'
p407
I2850
sS'223'
p408
I850
sS'222'
p409
I1950
sS'151'
p410
I1900
sS'150'
p411
I1400
sS'153'
p412
I1400
sS'152'
p413
I1950
sS'155'
p414
I1950
sS'154'
p415
I3900
sS'157'
p416
I1900
sS'156'
p417
I1400
sS'159'
p418
I1800
sS'158'
p419
I6000
sS'1807'
p420
I3900
sS'1806'
p421
I1900
sS'1805'
p422
I1900
sS'1804'
p423
I3900
sS'1803'
p424
I1900
sS'1801'
p425
I950
sS'1800'
p426
I950
sS'1809'
p427
I1700
sS'1808'
p428
I3900
sS'1256'
p429
I10000
sS'1525'
p430
I1900
sS'1526'
p431
I5850
sS'818'
p432
I8000
sS'819'
p433
I8000
sS'1527'
p434
I3900
sS'810'
p435
I9750
sS'811'
p436
I1400
sS'812'
p437
I8000
sS'813'
p438
I9750
sS'814'
p439
I9750
sS'815'
p440
I2000
sS'816'
p441
I7800
sS'817'
p442
I1900
sS'1522'
p443
I5850
sS'1358'
p444
I6000
sS'1523'
p445
I1900
sS'1490'
p446
I3900
sS'1491'
p447
I9750
sS'1492'
p448
I2850
sS'1493'
p449
I1950
sS'1494'
p450
I0
sS'1497'
p451
I3900
sS'1498'
p452
I0
sS'1499'
p453
I3900
sS'1395'
p454
I4000
sS'1700'
p455
I0
sS'1701'
p456
I950
sS'1702'
p457
I0
sS'1703'
p458
I800
sS'1704'
p459
I950
sS'1705'
p460
I7800
sS'1706'
p461
I7800
sS'1707'
p462
I1800
sS'1708'
p463
I5850
sS'1709'
p464
I950
sS'1392'
p465
I0
sS'1391'
p466
I4000
sS'1128'
p467
I5850
sS'1129'
p468
I5850
sS'1120'
p469
I7800
sS'1121'
p470
I2800
sS'1122'
p471
I5850
sS'1123'
p472
I0
sS'1124'
p473
I0
sS'1125'
p474
I9750
sS'1126'
p475
I3600
sS'1127'
p476
I5850
sS'524'
p477
I1900
sS'525'
p478
I7800
sS'526'
p479
I3900
sS'527'
p480
I1950
sS'1018'
p481
I5520
sS'1019'
p482
I8000
sS'522'
p483
I5850
sS'1014'
p484
I8000
sS'1015'
p485
I7800
sS'1017'
p486
I0
sS'1011'
p487
I0
sS'1012'
p488
I7800
sS'1013'
p489
I950
sS'1234'
p490
I5850
sS'1235'
p491
I850
sS'1237'
p492
I1900
sS'1230'
p493
I10000
sS'1232'
p494
I10000
sS'1233'
p495
I950
sS'1238'
p496
I8000
sS'1239'
p497
I8000
sS'438'
p498
I1800
sS'439'
p499
I1600
sS'436'
p500
I8000
sS'437'
p501
I1400
sS'434'
p502
I1950
sS'435'
p503
I8000
sS'432'
p504
I1950
sS'433'
p505
I4350
sS'430'
p506
I3000
sS'431'
p507
I1950
sS'238'
p508
I5850
sS'239'
p509
I2800
sS'234'
p510
I3500
sS'235'
p511
I3500
sS'236'
p512
I7600
sS'237'
p513
I1750
sS'230'
p514
I7600
sS'231'
p515
I9500
sS'232'
p516
I7600
sS'233'
p517
I3000
sS'1'
p518
I1600
sS'146'
p519
I0
sS'144'
p520
I1900
sS'145'
p521
I3900
sS'142'
p522
I3900
sS'143'
p523
I2850
sS'140'
p524
I1900
sS'141'
p525
I3900
sS'148'
p526
I1900
sS'149'
p527
I1900
sS'1832'
p528
I1900
sS'1833'
p529
I850
sS'1830'
p530
I3900
sS'1831'
p531
I850
sS'1836'
p532
I850
sS'1837'
p533
I3060
sS'1834'
p534
I3900
sS'1835'
p535
I1900
sS'1838'
p536
I3900
sS'1839'
p537
I0
sS'939'
p538
I5250
sS'933'
p539
I7800
sS'932'
p540
I2800
sS'931'
p541
I7800
sS'930'
p542
I7800
sS'937'
p543
I2800
sS'936'
p544
I1400
sS'935'
p545
I0
sS'934'
p546
I2800
sS'829'
p547
I8000
sS'828'
p548
I8000
sS'825'
p549
I8000
sS'824'
p550
I650
sS'827'
p551
I8000
sS'826'
p552
I1900
sS'821'
p553
I8000
sS'597'
p554
I3900
sS'823'
p555
I1800
sS'822'
p556
I8000
sS'1482'
p557
I3900
sS'1481'
p558
I0
sS'1487'
p559
I3900
sS'1486'
p560
I850
sS'1485'
p561
I3900
sS'1484'
p562
I3900
sS'1489'
p563
I3900
sS'1488'
p564
I850
sS'797'
p565
I0
sS'796'
p566
I0
sS'795'
p567
I800
sS'794'
p568
I1400
sS'1717'
p569
I5850
sS'792'
p570
I5400
sS'791'
p571
I1400
sS'790'
p572
I2850
sS'1719'
p573
I850
sS'1718'
p574
I1900
sS'799'
p575
I1400
sS'798'
p576
I1900
sS'1271'
p577
I1950
sS'610'
p578
I8000
sS'1139'
p579
I0
sS'1138'
p580
I7800
sS'1133'
p581
I3600
sS'1132'
p582
I3600
sS'1131'
p583
I5850
sS'1130'
p584
I3600
sS'1137'
p585
I7800
sS'1136'
p586
I650
sS'1135'
p587
I9750
sS'1134'
p588
I2000
sS'614'
p589
I11700
sS'1277'
p590
I1950
sS'519'
p591
I3000
sS'518'
p592
I8000
sS'1009'
p593
I1400
sS'1008'
p594
I9750
sS'511'
p595
I9750
sS'510'
p596
I8000
sS'513'
p597
I9750
sS'512'
p598
I1900
sS'1003'
p599
I0
sS'1002'
p600
I3900
sS'1001'
p601
I0
sS'1000'
p602
I1600
sS'1227'
p603
I2000
sS'622'
p604
I5850
sS'621'
p605
I900
sS'1224'
p606
I6000
sS'1223'
p607
I12000
sS'1222'
p608
I4000
sS'625'
p609
I1900
sS'1220'
p610
I8000
sS'628'
p611
I980
sS'1229'
p612
I5850
sS'1228'
p613
I950
sS'2'
p614
I3900
sS'11'
p615
I2850
sS'10'
p616
I3900
sS'13'
p617
I5850
sS'12'
p618
I3000
sS'15'
p619
I1800
sS'14'
p620
I5850
sS'17'
p621
I3000
sS'16'
p622
I3000
sS'19'
p623
I5850
sS'18'
p624
I0
sS'201'
p625
I850
sS'200'
p626
I2850
sS'203'
p627
I1900
sS'202'
p628
I3800
sS'205'
p629
I1900
sS'204'
p630
I6000
sS'207'
p631
I850
sS'206'
p632
I1900
sS'209'
p633
I850
sS'208'
p634
I0
sS'685'
p635
I1400
sS'1572'
p636
I3900
sS'1571'
p637
I3060
sS'1570'
p638
I3060
sS'1577'
p639
I3900
sS'1575'
p640
I3900
sS'1574'
p641
I950
sS'1829'
p642
I3900
sS'1825'
p643
I7800
sS'1824'
p644
I7800
sS'1827'
p645
I7800
sS'1826'
p646
I7800
sS'1821'
p647
I0
sS'1820'
p648
I0
sS'1823'
p649
I3900
sS'1822'
p650
I3900
sS'928'
p651
I7800
sS'929'
p652
I8000
sS'921'
p653
I4000
sS'922'
p654
I2850
sS'923'
p655
I7800
sS'924'
p656
I9750
sS'925'
p657
I5250
sS'926'
p658
I8000
sS'927'
p659
I2800
sS'832'
p660
I9750
sS'833'
p661
I5850
sS'830'
p662
I6000
sS'831'
p663
I1960
sS'836'
p664
I8000
sS'837'
p665
I10000
sS'834'
p666
I8000
sS'835'
p667
I8000
sS'838'
p668
I1800
sS'3'
p669
I3000
sS'784'
p670
I6000
sS'785'
p671
I1900
sS'786'
p672
I1800
sS'780'
p673
I6000
sS'781'
p674
I980
sS'1728'
p675
I5850
sS'1729'
p676
I1950
sS'1726'
p677
I1400
sS'1727'
p678
I5850
sS'1724'
p679
I3900
sS'1725'
p680
I3900
sS'1722'
p681
I3900
sS'1723'
p682
I5700
sS'1720'
p683
I950
sS'60'
p684
I3000
sS'61'
p685
I5850
sS'62'
p686
I0
sS'63'
p687
I1950
sS'64'
p688
I1900
sS'65'
p689
I1950
sS'66'
p690
I1950
sS'67'
p691
I3000
sS'68'
p692
I7800
sS'69'
p693
I1900
sS'1371'
p694
I950
sS'1588'
p695
I3800
sS'1589'
p696
I9750
sS'1370'
p697
I800
sS'1582'
p698
I9750
sS'1583'
p699
I9750
sS'1580'
p700
I800
sS'1581'
p701
I9750
sS'1586'
p702
I3900
sS'405'
p703
I1950
sS'1584'
p704
I950
sS'1585'
p705
I1900
sS'1038'
p706
I7800
sS'404'
p707
I7800
sS'508'
p708
I8000
sS'509'
p709
I8000
sS'1032'
p710
I0
sS'403'
p711
I1900
sS'504'
p712
I1850
sS'505'
p713
I1800
sS'502'
p714
I5850
sS'1037'
p715
I1900
sS'500'
p716
I8000
sS'501'
p717
I8000
sS'630'
p718
I2850
sS'631'
p719
I9750
sS'632'
p720
I1800
sS'1211'
p721
I8000
sS'1216'
p722
I850
sS'401'
p723
I2850
sS'636'
p724
I8000
sS'637'
p725
I0
sS'638'
p726
I1800
sS'639'
p727
I6000
sS'1218'
p728
I1400
sS'1219'
p729
I7800
sS'782'
p730
I7800
sS'783'
p731
I3920
sS'1106'
p732
I2800
sS'1455'
p733
I1400
sS'1456'
p734
I7800
sS'1105'
p735
I6000
sS'1450'
p736
I4000
sS'1103'
p737
I9750
sS'1452'
p738
I4000
sS'1453'
p739
I4000
sS'1458'
p740
I6000
sS'1459'
p741
I2000
sS'1108'
p742
I1400
sS'1109'
p743
I1400
sS'788'
p744
I1400
sS'789'
p745
I8000
sS'216'
p746
I1900
sS'217'
p747
I1900
sS'214'
p748
I1300
sS'215'
p749
I7600
sS'212'
p750
I7600
sS'213'
p751
I7600
sS'210'
p752
I650
sS'211'
p753
I1900
sS'218'
p754
I0
sS'219'
p755
I1950
sS'462'
p756
I1400
sS'4'
p757
I3000
sS'1858'
p758
I3900
sS'1859'
p759
I1700
sS'1850'
p760
I3800
sS'1851'
p761
I3900
sS'1853'
p762
I0
sS'1854'
p763
I950
sS'1855'
p764
I950
sS'1856'
p765
I5700
sS'1857'
p766
I3900
sS'919'
p767
I0
sS'918'
p768
I5250
sS'915'
p769
I7800
sS'914'
p770
I8000
sS'917'
p771
I1800
sS'916'
p772
I1400
sS'911'
p773
I8000
sS'910'
p774
I1300
sS'913'
p775
I8000
sS'912'
p776
I7800
sS'1424'
p777
I8000
sS'847'
p778
I10000
sS'846'
p779
I1900
sS'845'
p780
I8000
sS'844'
p781
I1800
sS'843'
p782
I8000
sS'842'
p783
I8000
sS'841'
p784
I0
sS'840'
p785
I3900
sS'849'
p786
I1840
sS'848'
p787
I7800
sS'1587'
p788
I5700
sS'1739'
p789
I3800
sS'1738'
p790
I3800
sS'1731'
p791
I850
sS'1730'
p792
I1400
sS'1733'
p793
I3060
sS'1732'
p794
I3000
sS'662'
p795
I6000
sS'1734'
p796
I3800
sS'1737'
p797
I1750
sS'1736'
p798
I3800
sS'1039'
p799
I4000
sS'753'
p800
I3900
sS'752'
p801
I0
sS'751'
p802
I0
sS'750'
p803
I7800
sS'757'
p804
I1900
sS'755'
p805
I3900
sS'754'
p806
I0
sS'759'
p807
I8000
sS'758'
p808
I7800
sS'1595'
p809
I850
sS'1594'
p810
I3600
sS'1597'
p811
I3900
sS'1596'
p812
I7800
sS'1591'
p813
I3900
sS'1590'
p814
I9750
sS'1593'
p815
I950
sS'1592'
p816
I3900
sS'1599'
p817
I1900
sS'1598'
p818
I3900
sS'1025'
p819
I7800
sS'1024'
p820
I9500
sS'1027'
p821
I2600
sS'1026'
p822
I0
sS'1020'
p823
I0
sS'1023'
p824
I0
sS'1022'
p825
I7800
sS'1036'
p826
I1900
sS'1029'
p827
I0
sS'1028'
p828
I9500
sS'503'
p829
I5850
sS'1034'
p830
I4000
sS'1035'
p831
I2600
sS'605'
p832
I3900
sS'604'
p833
I950
sS'607'
p834
I3900
sS'606'
p835
I11700
sS'1209'
p836
I0
sS'1208'
p837
I8000
sS'603'
p838
I1900
sS'602'
p839
I6000
sS'1205'
p840
I7800
sS'1207'
p841
I950
sS'1206'
p842
I950
sS'609'
p843
I0
sS'1210'
p844
I8000
sS'1203'
p845
I9750
sS'1202'
p846
I0
sS'633'
p847
I2850
sS'634'
p848
I5850
sS'635'
p849
I950
sS'1214'
p850
I1400
sS'1215'
p851
I3060
sS'1447'
p852
I0
sS'1110'
p853
I9750
sS'1445'
p854
I800
sS'1444'
p855
I1800
sS'1443'
p856
I6000
sS'1442'
p857
I3060
sS'1441'
p858
I0
sS'1440'
p859
I0
sS'1119'
p860
I5850
sS'1118'
p861
I2800
sS'467'
p862
I1900
sS'1449'
p863
I4000
sS'1448'
p864
I1950
sS'1350'
p865
I4000
sS'1357'
p866
I800
sS'1356'
p867
I6000
sS'1355'
p868
I6000
sS'489'
p869
I0
sS'488'
p870
I5850
sS'487'
p871
I5850
sS'486'
p872
I4350
sS'485'
p873
I650
sS'484'
p874
I1950
sS'483'
p875
I2900
sS'482'
p876
I2900
sS'481'
p877
I1900
sS'480'
p878
I2900
sS'695'
p879
I1800
sS'199'
p880
I3800
sS'198'
p881
I1900
sS'195'
p882
I1900
sS'194'
p883
I3800
sS'197'
p884
I3800
sS'196'
p885
I2700
sS'191'
p886
I1900
sS'190'
p887
I6000
sS'193'
p888
I1850
sS'192'
p889
I1800
sS'1107'
p890
I8000
sS'1104'
p891
I9750
sS'1457'
p892
I6000
sS'1102'
p893
I3600
sS'1451'
p894
I6000
sS'1100'
p895
I2800
sS'1101'
p896
I1800
sS'902'
p897
I1900
sS'903'
p898
I8000
sS'900'
p899
I2000
sS'901'
p900
I0
sS'906'
p901
I7800
sS'907'
p902
I8000
sS'904'
p903
I7600
sS'905'
p904
I650
sS'1843'
p905
I0
sS'1842'
p906
I3900
sS'908'
p907
I8000
sS'909'
p908
I0
sS'1847'
p909
I0
sS'1846'
p910
I3800
sS'1845'
p911
I3900
sS'1844'
p912
I3900
sS'856'
p913
I1840
sS'857'
p914
I8000
sS'850'
p915
I1800
sS'851'
p916
I10000
sS'852'
p917
I1960
sS'853'
p918
I0
sS'858'
p919
I8000
sS'859'
p920
I2940
sS'6'
p921
I1400
sS'740'
p922
I6000
sS'741'
p923
I1960
sS'743'
p924
I6000
sS'744'
p925
I0
sS'746'
p926
I1400
sS'747'
p927
I950
sS'748'
p928
I0
sS'749'
p929
I800
sS'1050'
p930
I7800
sS'1051'
p931
I0
sS'1052'
p932
I5850
sS'1053'
p933
I0
sS'1054'
p934
I7800
sS'1055'
p935
I7800
sS'1056'
p936
I7800
sS'1057'
p937
I7800
sS'1058'
p938
I0
sS'1059'
p939
I0
sS'1696'
p940
I1950
sS'1697'
p941
I3900
sS'1694'
p942
I1800
sS'1695'
p943
I1900
sS'1692'
p944
I7800
sS'1693'
p945
I7800
sS'1690'
p946
I850
sS'1691'
p947
I7800
sS'1791'
p948
I3900
sS'1698'
p949
I950
sS'1699'
p950
I1800
sS'1278'
p951
I1900
sS'1279'
p952
I3060
sS'618'
p953
I0
sS'619'
p954
I1400
sS'1270'
p955
I3800
sS'613'
p956
I2850
sS'1272'
p957
I800
sS'1273'
p958
I1950
sS'616'
p959
I3900
sS'617'
p960
I0
sS'1276'
p961
I1950
sS'615'
p962
I1800
sS'711'
p963
I3600
sS'710'
p964
I1800
sS'1472'
p965
I7800
sS'1473'
p966
I1400
sS'1476'
p967
I0
sS'1477'
p968
I0
sS'1474'
p969
I3900
sS'1475'
p970
I3900
sS'1304'
p971
I11700
sS'1305'
p972
I1400
sS'1306'
p973
I1950
sS'1307'
p974
I1950
sS'1300'
p975
I0
sS'1301'
p976
I1950
sS'1302'
p977
I1900
sS'1303'
p978
I10000
sS'1308'
p979
I4000
sS'1309'
p980
I1950
sS'498'
p981
I3000
sS'499'
p982
I0
sS'494'
p983
I8000
sS'495'
p984
I8000
sS'496'
p985
I1900
sS'497'
p986
I1900
sS'490'
p987
I8000
sS'492'
p988
I1950
sS'493'
p989
I650
sS'24'
p990
I0
sS'25'
p991
I0
sS'26'
p992
I2800
sS'27'
p993
I950
sS'20'
p994
I5850
sS'21'
p995
I5850
sS'22'
p996
I0
sS'23'
p997
I950
sS'29'
p998
I950
sS'1241'
p999
I1900
sS'1875'
p1000
I0
sS'1511'
p1001
I1400
sS'446'
p1002
I3900
sS'591'
p1003
I5850
sS'590'
p1004
I1900
sS'1085'
p1005
I2550
sS'1876'
p1006
I3900
sS'1877'
p1007
I950
sS'1874'
p1008
I3900
sS'1084'
p1009
I1200
sS'1872'
p1010
I3900
sS'1873'
p1011
I850
sS'1870'
p1012
I950
sS'1871'
p1013
I3900
sS'1083'
p1014
I2600
sS'1878'
p1015
I3900
sS'1879'
p1016
I3900
sS'977'
p1017
I7600
sS'976'
p1018
I650
sS'975'
p1019
I7600
sS'974'
p1020
I6000
sS'973'
p1021
I5850
sS'972'
p1022
I5700
sS'971'
p1023
I0
sS'970'
p1024
I1900
sS'979'
p1025
I2600
sS'978'
p1026
I2550
sS'182'
p1027
I1750
sS'183'
p1028
I3800
sS'180'
p1029
I6000
sS'181'
p1030
I0
sS'186'
p1031
I1950
sS'187'
p1032
I1900
sS'184'
p1033
I1900
sS'185'
p1034
I1950
sS'188'
p1035
I1900
sS'189'
p1036
I950
sS'869'
p1037
I4350
sS'868'
p1038
I7800
sS'861'
p1039
I0
sS'860'
p1040
I8000
sS'863'
p1041
I5850
sS'865'
p1042
I8000
sS'864'
p1043
I9750
sS'867'
p1044
I8000
sS'866'
p1045
I5400
sS'883'
p1046
I9750
sS'882'
p1047
I0
sS'881'
p1048
I1400
sS'880'
p1049
I1400
sS'887'
p1050
I8000
sS'886'
p1051
I1600
sS'884'
p1052
I7800
sS'889'
p1053
I8000
sS'888'
p1054
I5850
sS'775'
p1055
I8000
sS'774'
p1056
I0
sS'776'
p1057
I0
sS'771'
p1058
I8000
sS'770'
p1059
I1400
sS'773'
p1060
I650
sS'772'
p1061
I3600
sS'779'
p1062
I1600
sS'778'
p1063
I650
sS'77'
p1064
I1800
sS'76'
p1065
I6000
sS'75'
p1066
I2900
sS'74'
p1067
I0
sS'73'
p1068
I7800
sS'72'
p1069
I650
sS'71'
p1070
I1800
sS'70'
p1071
I1800
sS'79'
p1072
I4000
sS'78'
p1073
I2000
sS'1040'
p1074
I2600
sS'1047'
p1075
I1800
sS'1046'
p1076
I0
sS'1045'
p1077
I7800
sS'1049'
p1078
I5850
sS'1048'
p1079
I650
sS'1681'
p1080
I3900
sS'1680'
p1081
I3900
sS'1683'
p1082
I3900
sS'1682'
p1083
I5850
sS'1685'
p1084
I7800
sS'1684'
p1085
I7800
sS'1687'
p1086
I1800
sS'1686'
p1087
I3900
sS'1689'
p1088
I950
sS'1688'
p1089
I7800
sS'1269'
p1090
I1300
sS'669'
p1091
I9750
sS'668'
p1092
I8000
sS'1263'
p1093
I3600
sS'1262'
p1094
I8000
sS'665'
p1095
I1600
sS'664'
p1096
I1400
sS'663'
p1097
I2700
sS'1266'
p1098
I8000
sS'1265'
p1099
I8000
sS'1264'
p1100
I5850
sS'640'
p1101
I8000
sS'1469'
p1102
I6000
sS'1468'
p1103
I0
sS'1464'
p1104
I0
sS'1461'
p1105
I11700
sS'1460'
p1106
I6000
sS'1463'
p1107
I6000
sS'1462'
p1108
I9750
sS'1316'
p1109
I1950
sS'1315'
p1110
I850
sS'1314'
p1111
I1900
sS'1313'
p1112
I10000
sS'1312'
p1113
I5850
sS'1311'
p1114
I5850
sS'1310'
p1115
I3900
sS'1319'
p1116
I950
sS'529'
p1117
I2800
sS'319'
p1118
I1900
sS'318'
p1119
I5850
sS'313'
p1120
I1400
sS'312'
p1121
I1900
sS'311'
p1122
I1800
sS'317'
p1123
I1400
sS'316'
p1124
I1750
sS'315'
p1125
I7600
sS'314'
p1126
I1750
sS'443'
p1127
I900
sS'442'
p1128
I9750
sS'440'
p1129
I3000
sS'1330'
p1130
I6000
sS'1333'
p1131
I5700
sS'444'
p1132
I7800
sS'402'
p1133
I1800
sS'1861'
p1134
I2850
sS'1860'
p1135
I3900
sS'1863'
p1136
I3900
sS'1862'
p1137
I3900
sS'1865'
p1138
I3900
sS'1864'
p1139
I3900
sS'1867'
p1140
I0
sS'1866'
p1141
I3900
sS'1869'
p1142
I950
sS'1868'
p1143
I950
sS'964'
p1144
I0
sS'965'
p1145
I5700
sS'966'
p1146
I2700
sS'967'
p1147
I1400
sS'960'
p1148
I8000
sS'961'
p1149
I1900
sS'962'
p1150
I2940
sS'963'
p1151
I8000
sS'968'
p1152
I1900
sS'969'
p1153
I0
sS'286'
p1154
I5700
sS'400'
p1155
I1800
sS'641'
p1156
I7800
sS'878'
p1157
I2850
sS'879'
p1158
I2850
sS'876'
p1159
I3680
sS'874'
p1160
I5850
sS'875'
p1161
I0
sS'872'
p1162
I950
sS'1535'
p1163
I0
sS'870'
p1164
I7800
sS'871'
p1165
I1960
sS'642'
p1166
I7800
sS'9'
p1167
I3000
sS'1533'
p1168
I1400
sS'1532'
p1169
I850
sS'892'
p1170
I7800
sS'893'
p1171
I1800
sS'894'
p1172
I1800
sS'895'
p1173
I1800
sS'897'
p1174
I1900
sS'898'
p1175
I9500
sS'899'
p1176
I650
sS'1530'
p1177
I5850
sS'649'
p1178
I7800
sS'1248'
p1179
I8000
sS'1788'
p1180
I3900
sS'1789'
p1181
I1900
sS'768'
p1182
I7800
sS'769'
p1183
I5400
sS'265'
p1184
I2000
sS'1780'
p1185
I3800
sS'1781'
p1186
I3900
sS'760'
p1187
I3600
sS'1783'
p1188
I950
sS'1784'
p1189
I5700
sS'767'
p1190
I0
sS'764'
p1191
I7800
sS'1787'
p1192
I3900
sS'1078'
p1193
I2550
sS'1079'
p1194
I7800
sS'1076'
p1195
I2550
sS'1077'
p1196
I5700
sS'1075'
p1197
I0
sS'1072'
p1198
I0
sS'1073'
p1199
I1450
sS'1070'
p1200
I4350
sS'1071'
p1201
I0
sS'1678'
p1202
I1800
sS'1679'
p1203
I0
sS'1674'
p1204
I4000
sS'1675'
p1205
I950
sS'1676'
p1206
I1960
sS'1677'
p1207
I7800
sS'1671'
p1208
I0
sS'1672'
p1209
I3900
sS'1673'
p1210
I1900
sS'1094'
p1211
I9750
sS'1095'
p1212
I8000
sS'1096'
p1213
I9750
sS'1097'
p1214
I3600
sS'678'
p1215
I5850
sS'679'
p1216
I7800
sS'1092'
p1217
I1800
sS'1534'
p1218
I11700
sS'674'
p1219
I7800
sS'675'
p1220
I1900
sS'677'
p1221
I3600
sS'670'
p1222
I9750
sS'1099'
p1223
I7800
sS'672'
p1224
I1800
sS'673'
p1225
I1400
sS'645'
p1226
I850
sS'1418'
p1227
I2000
sS'1419'
p1228
I5850
sS'1410'
p1229
I6000
sS'1411'
p1230
I4000
sS'1412'
p1231
I1400
sS'1413'
p1232
I4000
sS'1414'
p1233
I3680
sS'1415'
p1234
I8000
sS'1416'
p1235
I1400
sS'1417'
p1236
I6000
sS'1322'
p1237
I3800
sS'1323'
p1238
I1400
sS'1320'
p1239
I1950
sS'644'
p1240
I850
sS'1326'
p1241
I8000
sS'1327'
p1242
I950
sS'1324'
p1243
I5850
sS'1325'
p1244
I4000
sS'1329'
p1245
I5850
sS'1531'
p1246
I1900
sS'1524'
p1247
I4000
sS'1257'
p1248
I8000
sS'1254'
p1249
I1900
sS'1255'
p1250
I12000
sS'1520'
p1251
I5850
sS'1521'
p1252
I3900
sS'1250'
p1253
I1950
sS'1251'
p1254
I8000
sS'1528'
p1255
I1600
sS'1529'
p1256
I7800
sS'1258'
p1257
I10000
sS'1259'
p1258
I1400
sS'308'
p1259
I1800
sS'309'
p1260
I1800
sS'300'
p1261
I1950
sS'302'
p1262
I1950
sS'303'
p1263
I1800
sS'304'
p1264
I1450
sS'305'
p1265
I1950
sS'306'
p1266
I1800
sS'307'
p1267
I1750
sS'473'
p1268
I0
sS'959'
p1269
I1900
sS'958'
p1270
I8000
sS'951'
p1271
I2700
sS'950'
p1272
I3500
sS'953'
p1273
I4200
sS'952'
p1274
I2800
sS'955'
p1275
I7800
sS'1267'
p1276
I6000
sS'957'
p1277
I8000
sS'956'
p1278
I3900
sS'506'
p1279
I950
sS'1790'
p1280
I1800
sS'507'
p1281
I4500
sS'667'
p1282
I8000
sS'666'
p1283
I2800
sS'1261'
p1284
I0
sS'1799'
p1285
I3900
sS'1798'
p1286
I950
sS'719'
p1287
I8000
sS'718'
p1288
I7800
sS'717'
p1289
I6000
sS'716'
p1290
I1800
sS'715'
p1291
I0
sS'714'
p1292
I1800
sS'713'
p1293
I0
sS'712'
p1294
I8000
sS'1795'
p1295
I850
sS'1794'
p1296
I4000
sS'661'
p1297
I1400
sS'1060'
p1298
I2600
sS'1063'
p1299
I3800
sS'1062'
p1300
I7800
sS'1065'
p1301
I3800
sS'1064'
p1302
I1400
sS'1067'
p1303
I1800
sS'1066'
p1304
I5700
sS'1669'
p1305
I850
sS'1667'
p1306
I3900
sS'1666'
p1307
I850
sS'1665'
p1308
I850
sS'1664'
p1309
I7800
sS'1663'
p1310
I4000
sS'1662'
p1311
I950
sS'1661'
p1312
I950
sS'1660'
p1313
I3900
sS'1087'
p1314
I6000
sS'1086'
p1315
I7800
sS'593'
p1316
I8000
sS'592'
p1317
I8000
sS'595'
p1318
I5850
sS'594'
p1319
I7800
sS'1081'
p1320
I1800
sS'596'
p1321
I4000
sS'599'
p1322
I3900
sS'598'
p1323
I5850
sS'1089'
p1324
I8000
sS'1088'
p1325
I650
sS'1403'
p1326
I4000
sS'1402'
p1327
I6000
sS'1401'
p1328
I4000
sS'1407'
p1329
I900
sS'1406'
p1330
I0
sS'1405'
p1331
I800
sS'1404'
p1332
I4000
sS'1546'
p1333
I4000
sS'449'
p1334
I1800
sS'1339'
p1335
I3900
sS'1547'
p1336
I1900
sS'1335'
p1337
I2700
sS'1334'
p1338
I7800
sS'441'
p1339
I8000
sS'1336'
p1340
I0
sS'447'
p1341
I1800
sS'1544'
p1342
I5700
sS'445'
p1343
I1900
sS'1332'
p1344
I7800
sS'1545'
p1345
I850
sS'697'
p1346
I6000
sS'39'
p1347
I1400
sS'38'
p1348
I3000
sS'1540'
p1349
I850
sS'33'
p1350
I5850
sS'32'
p1351
I5850
sS'31'
p1352
I5850
sS'30'
p1353
I1950
sS'37'
p1354
I3000
sS'36'
p1355
I950
sS'35'
p1356
I2700
sS'34'
p1357
I5850
sS'1537'
p1358
I3900
sS'1536'
p1359
I1900
sS'1243'
p1360
I5850
sS'1242'
p1361
I8000
sS'1245'
p1362
I1900
sS'1244'
p1363
I950
sS'1247'
p1364
I8000
sS'646'
p1365
I6000
sS'1249'
p1366
I8000
sS'648'
p1367
I5850
sS'1539'
p1368
I1900
sS'1538'
p1369
I3900
sS'339'
p1370
I7800
sS'338'
p1371
I3500
sS'335'
p1372
I1900
sS'334'
p1373
I2850
sS'337'
p1374
I1400
sS'336'
p1375
I11400
sS'330'
p1376
I7800
sS'333'
p1377
I1750
sS'332'
p1378
I7800
sS'8'
p1379
I4000
sS'1353'
p1380
I4000
sS'1352'
p1381
I0
sS'1886'
p1382
I9500
sS'1884'
p1383
I7800
sS'1883'
p1384
I3800
sS'1882'
p1385
I1750
sS'1881'
p1386
I850
sS'1880'
p1387
I3900
sS'948'
p1388
I5250
sS'946'
p1389
I1400
sS'947'
p1390
I7600
sS'944'
p1391
I9750
sS'942'
p1392
I8000
sS'943'
p1393
I7800
sS'940'
p1394
I0
sS'941'
p1395
I8000
sS'133'
p1396
I1800
sS'132'
p1397
I1400
sS'131'
p1398
I1950
sS'130'
p1399
I3900
sS'137'
p1400
I1750
sS'136'
p1401
I1400
sS'135'
p1402
I0
sS'134'
p1403
I1950
sS'139'
p1404
I950
sS'138'
p1405
I3900
sS'1793'
p1406
I850
sS'708'
p1407
I1800
sS'709'
p1408
I4200
sS'704'
p1409
I3900
sS'705'
p1410
I3900
sS'706'
p1411
I1800
sS'707'
p1412
I650
sS'700'
p1413
I1900
sS'701'
p1414
I3900
sS'702'
p1415
I3900
sS'703'
p1416
I1800
sS'88'
p1417
I2000
sS'89'
p1418
I3800
sS'82'
p1419
I4000
sS'83'
p1420
I2000
sS'80'
p1421
I1950
sS'81'
p1422
I4000
sS'86'
p1423
I3680
sS'84'
p1424
I6000
sS'85'
p1425
I0
sS'762'
p1426
I5400
sS'1659'
p1427
I3900
sS'1652'
p1428
I0
sS'1653'
p1429
I7800
sS'1650'
p1430
I3900
sS'1651'
p1431
I1700
sS'1656'
p1432
I1900
sS'1657'
p1433
I1600
sS'1654'
p1434
I1800
sS'1655'
p1435
I4000
sS'586'
p1436
I1900
sS'587'
p1437
I0
sS'584'
p1438
I2000
sS'585'
p1439
I1700
sS'763'
p1440
I1900
sS'583'
p1441
I0
sS'1436'
p1442
I6000
sS'1437'
p1443
I1900
sS'1434'
p1444
I3060
sS'1435'
p1445
I2000
sS'1433'
p1446
I10000
sS'1430'
p1447
I4000
sS'1431'
p1448
I950
sS'1438'
p1449
I11700
sS'1439'
p1450
I800
sS'1260'
p1451
I8000
sS'1349'
p1452
I1400
sS'458'
p1453
I4350
sS'459'
p1454
I5700
sS'450'
p1455
I2900
sS'451'
p1456
I8000
sS'1343'
p1457
I0
sS'454'
p1458
I1400
sS'455'
p1459
I1950
sS'456'
p1460
I1900
sS'457'
p1461
I1800
sS'517'
p1462
I6000
sS'1502'
p1463
I1400
sS'1503'
p1464
I1900
sS'1500'
p1465
I3900
sS'1501'
p1466
I1900
sS'652'
p1467
I850
sS'1507'
p1468
I3600
sS'650'
p1469
I8000
sS'1505'
p1470
I5850
sS'1508'
p1471
I1900
sS'658'
p1472
I0
sS'516'
p1473
I8000
sS'55'
p1474
I7800
sS'1292'
p1475
I10000
sS'322'
p1476
I1400
sS'323'
p1477
I5850
sS'320'
p1478
I1950
sS'321'
p1479
I1850
sS'326'
p1480
I1400
sS'327'
p1481
I1950
sS'324'
p1482
I1400
sS'325'
p1483
I2900
sS'328'
p1484
I3900
sS'329'
p1485
I1900
sS'1340'
p1486
I1950
sS'995'
p1487
I0
sS'994'
p1488
I7800
sS'997'
p1489
I7800
sS'996'
p1490
I1600
sS'991'
p1491
I8000
sS'990'
p1492
I9500
sS'993'
p1493
I7600
sS'992'
p1494
I1400
sS'999'
p1495
I1400
sS'998'
p1496
I7800
sS'120'
p1497
I6000
sS'121'
p1498
I3500
sS'122'
p1499
I2800
sS'123'
p1500
I3800
sS'124'
p1501
I2000
sS'125'
p1502
I2700
sS'126'
p1503
I1750
sS'127'
p1504
I1950
sS'128'
p1505
I1800
sS'129'
p1506
I5850
sS'520'
p1507
I6000
sS'521'
p1508
I6000
sS'722'
p1509
I1400
sS'723'
p1510
I6000
sS'1397'
p1511
I4000
sS'1645'
p1512
I5700
sS'1644'
p1513
I3900
sS'1647'
p1514
I850
sS'1646'
p1515
I950
sS'1641'
p1516
I850
sS'1640'
p1517
I1300
sS'1643'
p1518
I1900
sS'1642'
p1519
I650
sS'1396'
p1520
I4000
sS'1649'
p1521
I4000
sS'1648'
p1522
I950
sS'729'
p1523
I6000
sS'1252'
p1524
I8000
sS'578'
p1525
I6000
sS'573'
p1526
I2800
sS'572'
p1527
I0
sS'571'
p1528
I7800
sS'570'
p1529
I3600
sS'577'
p1530
I0
sS'576'
p1531
I850
sS'575'
p1532
I8000
sS'601'
p1533
I1800
sS'600'
p1534
I5850
sS'1421'
p1535
I6000
sS'1420'
p1536
I1800
sS'1423'
p1537
I3900
sS'1422'
p1538
I4000
sS'1425'
p1539
I8000
sS'1394'
p1540
I4000
sS'1427'
p1541
I6000
sS'1426'
p1542
I8000
sS'1429'
p1543
I8000
sS'1428'
p1544
I4000
sS'731'
p1545
I7800
sS'730'
p1546
I1800
sS'733'
p1547
I7800
sS'732'
p1548
I7800
sS'735'
p1549
I7800
sS'734'
p1550
I4000
sS'737'
p1551
I1800
sS'736'
p1552
I1800
sS'739'
p1553
I1400
sS'738'
p1554
I2850
sS'1359'
p1555
I2000
sS'1393'
p1556
I6000
sS'468'
p1557
I0
sS'465'
p1558
I3000
sS'464'
p1559
I1800
sS'1351'
p1560
I1950
sS'466'
p1561
I1300
sS'461'
p1562
I1900
sS'460'
p1563
I4350
sS'463'
p1564
I2850
sS'608'
p1565
I5850
sS'1519'
p1566
I5850
sS'1518'
p1567
I1800
sS'1515'
p1568
I3900
sS'1514'
p1569
I800
sS'1517'
p1570
I5850
sS'1516'
p1571
I7800
sS'1274'
p1572
I1900
sS'1510'
p1573
I7800
sS'1513'
p1574
I950
sS'1512'
p1575
I3900
sS'1735'
p1576
I3900
sS'280'
p1577
I4350
sS'582'
p1578
I1900
sS'282'
p1579
I9500
sS'357'
p1580
I5850
sS'356'
p1581
I1400
sS'355'
p1582
I7600
sS'354'
p1583
I7600
sS'353'
p1584
I1450
sS'352'
p1585
I0
sS'351'
p1586
I1800
sS'350'
p1587
I1900
sS'359'
p1588
I7800
sS'358'
p1589
I0
sS'1033'
p1590
I7400
sS'1446'
p1591
I1400
sS'1113'
p1592
I0
sS'289'
p1593
I1750
sS'288'
p1594
I1950
sS'1112'
p1595
I1900
sS'281'
p1596
I5850
sS'5'
p1597
I0
sS'283'
p1598
I1400
sS'1030'
p1599
I0
sS'285'
p1600
I950
sS'284'
p1601
I1600
sS'287'
p1602
I5700
sS'1114'
p1603
I2000
sS'263'
p1604
I9500
sS'262'
p1605
I2600
sS'261'
p1606
I1950
sS'260'
p1607
I1900
sS'267'
p1608
I1950
sS'266'
p1609
I5850
sS'1792'
p1610
I950
sS'264'
p1611
I2550
sS'1031'
p1612
I1800
sS'269'
p1613
I1900
sS'268'
p1614
I1900
sS'1562'
p1615
I7800
sS'1291'
p1616
I0
sS'1566'
p1617
I950
sS'988'
p1618
I7800
sS'989'
p1619
I0
sS'982'
p1620
I9750
sS'983'
p1621
I2850
sS'980'
p1622
I1400
sS'981'
p1623
I1400
sS'986'
p1624
I10000
sS'984'
p1625
I1400
sS'985'
p1626
I3500
sS'115'
p1627
I3900
sS'114'
p1628
I6000
sS'117'
p1629
I1600
sS'116'
p1630
I1900
sS'111'
p1631
I3900
sS'110'
p1632
I1750
sS'113'
p1633
I0
sS'112'
p1634
I1400
sS'119'
p1635
I0
sS'118'
p1636
I2000
sS'1797'
p1637
I3900
sS'1388'
p1638
I0
sS'1796'
p1639
I2800
sS'1389'
p1640
I4000
sS'820'
p1641
I8000
sS'954'
p1642
I0
sS'1630'
p1643
I950
sS'1631'
p1644
I0
sS'1632'
p1645
I1900
sS'1633'
p1646
I5700
sS'1634'
p1647
I3900
sS'1635'
p1648
I950
sS'1636'
p1649
I1900
sS'1637'
p1650
I1530
sS'1638'
p1651
I3060
sS'1639'
p1652
I3900
sS'568'
p1653
I7800
sS'569'
p1654
I3800
sS'560'
p1655
I3680
sS'561'
p1656
I10000
sS'562'
p1657
I6000
sS'563'
p1658
I1960
sS'564'
p1659
I9750
sS'565'
p1660
I7800
sS'566'
p1661
I1950
sS'567'
p1662
I2940
sS'1188'
p1663
I0
sS'1189'
p1664
I1400
sS'1186'
p1665
I1400
sS'1187'
p1666
I8000
sS'1184'
p1667
I8000
sS'1185'
p1668
I0
sS'1182'
p1669
I7800
sS'1183'
p1670
I7800
sS'1180'
p1671
I1400
sS'1181'
p1672
I1800
sS'726'
p1673
I7800
sS'727'
p1674
I8000
sS'724'
p1675
I1960
sS'725'
p1676
I5850
sS'1748'
p1677
I1750
sS'1749'
p1678
I3800
sS'720'
p1679
I2850
sS'721'
p1680
I9750
sS'1744'
p1681
I3800
sS'1745'
p1682
I1950
sS'1746'
p1683
I3800
sS'1747'
p1684
I1750
sS'1740'
p1685
I3800
sS'1741'
p1686
I0
sS'728'
p1687
I6000
sS'1743'
p1688
I3800
sS'1164'
p1689
I7800
sS'1165'
p1690
I2700
sS'1166'
p1691
I1800
sS'1160'
p1692
I8000
sS'1161'
p1693
I4000
sS'1162'
p1694
I4000
sS'1163'
p1695
I8000
sS'1168'
p1696
I7800
sS'1169'
p1697
I7800
sS'1366'
p1698
I4000
sS'48'
p1699
I950
sS'49'
p1700
I5850
sS'46'
p1701
I1950
sS'47'
p1702
I5850
sS'44'
p1703
I1600
sS'45'
p1704
I3000
sS'43'
p1705
I1900
sS'40'
p1706
I2850
sS'41'
p1707
I3000
sS'1568'
p1708
I5850
sS'1569'
p1709
I950
sS'1298'
p1710
I5850
sS'1299'
p1711
I0
sS'1560'
p1712
I950
sS'1561'
p1713
I850
sS'1290'
p1714
I6000
sS'1563'
p1715
I950
sS'1564'
p1716
I950
sS'1565'
p1717
I3900
sS'1294'
p1718
I3900
sS'1567'
p1719
I7800
sS'1713'
p1720
I950
sS'1360'
p1721
I4000
sS'1712'
p1722
I0
sS'475'
p1723
I5850
sS'1711'
p1724
I950
sS'1381'
p1725
I8000
sS'1710'
p1726
I1900
sS'793'
p1727
I1900
sS'1716'
p1728
I3060
sS'1715'
p1729
I1400
sS'1201'
p1730
I2800
sS'1714'
p1731
I1700
sS'472'
p1732
I3000
sS'1367'
p1733
I850
sS'1364'
p1734
I5850
sS'1365'
p1735
I5850
sS'476'
p1736
I2700
sS'477'
p1737
I5850
sS'474'
p1738
I5700
sS'1361'
p1739
I7800
sS'478'
p1740
I2900
sS'479'
p1741
I5850
sS'1368'
p1742
I1400
sS'1369'
p1743
I1400
s.