(dp0
S'1200'
p1
cnumpy.core.multiarray
_reconstruct
p2
(cnumpy
ndarray
p3
(I0
tp4
S'b'
p5
tp6
Rp7
(I1
(I1
tp8
cnumpy
dtype
p9
(S'f8'
p10
I0
I1
tp11
Rp12
(I3
S'<'
p13
NNNI-1
I-1
I0
tp14
bI00
S'\xbb\x9c\xefJ\x8a\x1d\x94A'
p15
tp16
bsS'643'
p17
g2
(g3
(I0
tp18
g5
tp19
Rp20
(I1
(I1
tp21
g12
I00
S'x J\x83\xb8\xc1aA'
p22
tp23
bsS'344'
p24
g2
(g3
(I0
tp25
g5
tp26
Rp27
(I1
(I1
tp28
g12
I00
S'dq\xf1\x06"\xa3\xa0A'
p29
tp30
bsS'345'
p31
g2
(g3
(I0
tp32
g5
tp33
Rp34
(I1
(I1
tp35
g12
I00
S'\xc3\xfb\x11\xdf<\xeb\x98A'
p36
tp37
bsS'346'
p38
g2
(g3
(I0
tp39
g5
tp40
Rp41
(I1
(I1
tp42
g12
I00
S'\xe4\xe4\x8d\xceo+\x83A'
p43
tp44
bsS'340'
p45
g2
(g3
(I0
tp46
g5
tp47
Rp48
(I1
(I1
tp49
g12
I00
S'\xb0\xd65\xe1a\xcejA'
p50
tp51
bsS'341'
p52
g2
(g3
(I0
tp53
g5
tp54
Rp55
(I1
(I1
tp56
g12
I00
S'Y\x03\n\x15\r\xc8\x96A'
p57
tp58
bsS'342'
p59
g2
(g3
(I0
tp60
g5
tp61
Rp62
(I1
(I1
tp63
g12
I00
S'\x00a.\x8b\x13\xef\x93A'
p64
tp65
bsS'343'
p66
g2
(g3
(I0
tp67
g5
tp68
Rp69
(I1
(I1
tp70
g12
I00
S'\xd9?mvv\xcf\x83A'
p71
tp72
bsS'348'
p73
g2
(g3
(I0
tp74
g5
tp75
Rp76
(I1
(I1
tp77
g12
I00
S'\x19\xa4 \xad\xa1\xa9bA'
p78
tp79
bsS'349'
p80
g2
(g3
(I0
tp81
g5
tp82
Rp83
(I1
(I1
tp84
g12
I00
S"\xa0\xbf\x81'\xa1\xaa\x93A"
p85
tp86
bsS'298'
p87
g2
(g3
(I0
tp88
g5
tp89
Rp90
(I1
(I1
tp91
g12
I00
S'?\xa9\xfc\x10P\x9e\x91A'
p92
tp93
bsS'299'
p94
g2
(g3
(I0
tp95
g5
tp96
Rp97
(I1
(I1
tp98
g12
I00
S'\xb6\xa3(\x0e\xba\xe2`A'
p99
tp100
bsS'296'
p101
g2
(g3
(I0
tp102
g5
tp103
Rp104
(I1
(I1
tp105
g12
I00
S'it\xf3\x9d\x1b\xf5\x96A'
p106
tp107
bsS'297'
p108
g2
(g3
(I0
tp109
g5
tp110
Rp111
(I1
(I1
tp112
g12
I00
S'\x91\xb8\x1cNFU\x94A'
p113
tp114
bsS'294'
p115
g2
(g3
(I0
tp116
g5
tp117
Rp118
(I1
(I1
tp119
g12
I00
S'\xf3K\xed\x1b\x0czqA'
p120
tp121
bsS'295'
p122
g2
(g3
(I0
tp123
g5
tp124
Rp125
(I1
(I1
tp126
g12
I00
S'\xf9\x98\x17\x03\xd5<\x95A'
p127
tp128
bsS'292'
p129
g2
(g3
(I0
tp130
g5
tp131
Rp132
(I1
(I1
tp133
g12
I00
S'KTG\xd7\xb5#\xa2A'
p134
tp135
bsS'293'
p136
g2
(g3
(I0
tp137
g5
tp138
Rp139
(I1
(I1
tp140
g12
I00
S'\x90\xd9_8P"_A'
p141
tp142
bsS'290'
p143
g2
(g3
(I0
tp144
g5
tp145
Rp146
(I1
(I1
tp147
g12
I00
S'\xbf\xf4\xe3\x00;,\x95A'
p148
tp149
bsS'291'
p150
g2
(g3
(I0
tp151
g5
tp152
Rp153
(I1
(I1
tp154
g12
I00
S'\xacU\x83\x95Q;bA'
p155
tp156
bsS'271'
p157
g2
(g3
(I0
tp158
g5
tp159
Rp160
(I1
(I1
tp161
g12
I00
S"]\x8cF\xc1G'\x90A"
p162
tp163
bsS'272'
p164
g2
(g3
(I0
tp165
g5
tp166
Rp167
(I1
(I1
tp168
g12
I00
S'\xf9\xbbE\x1e\x93\xb0\\A'
p169
tp170
bsS'273'
p171
g2
(g3
(I0
tp172
g5
tp173
Rp174
(I1
(I1
tp175
g12
I00
S'\x86W\x85\x9e^\x02\x80A'
p176
tp177
bsS'274'
p178
g2
(g3
(I0
tp179
g5
tp180
Rp181
(I1
(I1
tp182
g12
I00
S'\x9dyd\xb4I\xee\x91A'
p183
tp184
bsS'275'
p185
g2
(g3
(I0
tp186
g5
tp187
Rp188
(I1
(I1
tp189
g12
I00
S'\xfc\x85\xdd`\xb2\xef\xa0A'
p190
tp191
bsS'276'
p192
g2
(g3
(I0
tp193
g5
tp194
Rp195
(I1
(I1
tp196
g12
I00
S'\x9eG\x8a\xffB\xdefA'
p197
tp198
bsS'277'
p199
g2
(g3
(I0
tp200
g5
tp201
Rp202
(I1
(I1
tp203
g12
I00
S'\xc2\x8a \xb1\xffCsA'
p204
tp205
bsS'278'
p206
g2
(g3
(I0
tp207
g5
tp208
Rp209
(I1
(I1
tp210
g12
I00
S'\x96->\x1f\xcb\xa5\x99A'
p211
tp212
bsS'279'
p213
g2
(g3
(I0
tp214
g5
tp215
Rp216
(I1
(I1
tp217
g12
I00
S'J\x9d\x88{`g_A'
p218
tp219
bsS'1004'
p220
g2
(g3
(I0
tp221
g5
tp222
Rp223
(I1
(I1
tp224
g12
I00
S'\x86\xde\x0e\x9a\xa1\xe6\x8cA'
p225
tp226
bsS'108'
p227
g2
(g3
(I0
tp228
g5
tp229
Rp230
(I1
(I1
tp231
g12
I00
S'\n\x82\x85(\xad9\x8dA'
p232
tp233
bsS'109'
p234
g2
(g3
(I0
tp235
g5
tp236
Rp237
(I1
(I1
tp238
g12
I00
S"^Q\xf2'\xbb\x94\x83A"
p239
tp240
bsS'102'
p241
g2
(g3
(I0
tp242
g5
tp243
Rp244
(I1
(I1
tp245
g12
I00
S'8\xf0\xd73\xf1:\x81A'
p246
tp247
bsS'103'
p248
g2
(g3
(I0
tp249
g5
tp250
Rp251
(I1
(I1
tp252
g12
I00
S'e\xc1z\xd1)\xea\x9eA'
p253
tp254
bsS'100'
p255
g2
(g3
(I0
tp256
g5
tp257
Rp258
(I1
(I1
tp259
g12
I00
S'\xa6M\x0c\xd1c\xe9\xa6A'
p260
tp261
bsS'101'
p262
g2
(g3
(I0
tp263
g5
tp264
Rp265
(I1
(I1
tp266
g12
I00
S'\x015X\x87ie\xa6A'
p267
tp268
bsS'106'
p269
g2
(g3
(I0
tp270
g5
tp271
Rp272
(I1
(I1
tp273
g12
I00
S'\x12\xa3)\x8a\x80t{A'
p274
tp275
bsS'107'
p276
g2
(g3
(I0
tp277
g5
tp278
Rp279
(I1
(I1
tp280
g12
I00
S'\xdc\x91K\xc8N\x87\x84A'
p281
tp282
bsS'104'
p283
g2
(g3
(I0
tp284
g5
tp285
Rp286
(I1
(I1
tp287
g12
I00
S'\x06\x9cq\x903|\x8eA'
p288
tp289
bsS'105'
p290
g2
(g3
(I0
tp291
g5
tp292
Rp293
(I1
(I1
tp294
g12
I00
S'\t\xb0\x86^\x8b\xd0\x97A'
p295
tp296
bsS'1212'
p297
g2
(g3
(I0
tp298
g5
tp299
Rp300
(I1
(I1
tp301
g12
I00
S'J\x90E\xde\xf1Q\xafA'
p302
tp303
bsS'1213'
p304
g2
(g3
(I0
tp305
g5
tp306
Rp307
(I1
(I1
tp308
g12
I00
S'\xb2C\xa3\x90\xf0\x08tA'
p309
tp310
bsS'99'
p311
g2
(g3
(I0
tp312
g5
tp313
Rp314
(I1
(I1
tp315
g12
I00
S'\xae\x83\xc9\x8b\xa7B\x86A'
p316
tp317
bsS'98'
p318
g2
(g3
(I0
tp319
g5
tp320
Rp321
(I1
(I1
tp322
g12
I00
S'\x94\xc8\x86K\xdeHdA'
p323
tp324
bsS'91'
p325
g2
(g3
(I0
tp326
g5
tp327
Rp328
(I1
(I1
tp329
g12
I00
S'4\x15\xe6\xb6P\xc9\\A'
p330
tp331
bsS'90'
p332
g2
(g3
(I0
tp333
g5
tp334
Rp335
(I1
(I1
tp336
g12
I00
S'^\x12\x14Cq\\\xa0A'
p337
tp338
bsS'93'
p339
g2
(g3
(I0
tp340
g5
tp341
Rp342
(I1
(I1
tp343
g12
I00
S'\xd5\n\xab]\xa2\x11\x8fA'
p344
tp345
bsS'92'
p346
g2
(g3
(I0
tp347
g5
tp348
Rp349
(I1
(I1
tp350
g12
I00
S'\xe9x\xdfI\xd6\xd9\x96A'
p351
tp352
bsS'94'
p353
g2
(g3
(I0
tp354
g5
tp355
Rp356
(I1
(I1
tp357
g12
I00
S'\x1b\x82h\x1d\x01\xec\x84A'
p358
tp359
bsS'97'
p360
g2
(g3
(I0
tp361
g5
tp362
Rp363
(I1
(I1
tp364
g12
I00
S'\xe1\x95\x89\xed\xe3\xc7\x8fA'
p365
tp366
bsS'96'
p367
g2
(g3
(I0
tp368
g5
tp369
Rp370
(I1
(I1
tp371
g12
I00
S'>]\x08\r\xf8\xd9\x8fA'
p372
tp373
bsS'1623'
p374
g2
(g3
(I0
tp375
g5
tp376
Rp377
(I1
(I1
tp378
g12
I00
S'\x8cmNT9\xad\x91A'
p379
tp380
bsS'1622'
p381
g2
(g3
(I0
tp382
g5
tp383
Rp384
(I1
(I1
tp385
g12
I00
S'\xc6\xf0<\x04\x90!fA'
p386
tp387
bsS'1621'
p388
g2
(g3
(I0
tp389
g5
tp390
Rp391
(I1
(I1
tp392
g12
I00
S'\xec\x96\x81y\xfc~\x80A'
p393
tp394
bsS'1620'
p395
g2
(g3
(I0
tp396
g5
tp397
Rp398
(I1
(I1
tp399
g12
I00
S'\x86!\xc0\x89|\xb0\x90A'
p400
tp401
bsS'1627'
p402
g2
(g3
(I0
tp403
g5
tp404
Rp405
(I1
(I1
tp406
g12
I00
S'\xfc\xedBA\xe1!\x80A'
p407
tp408
bsS'1626'
p409
g2
(g3
(I0
tp410
g5
tp411
Rp412
(I1
(I1
tp413
g12
I00
S'\x04\x90\xb0\x18\xe3\xe3\x80A'
p414
tp415
bsS'1625'
p416
g2
(g3
(I0
tp417
g5
tp418
Rp419
(I1
(I1
tp420
g12
I00
S'\xd8\xa0-|\xa6\x07\x9eA'
p421
tp422
bsS'1624'
p423
g2
(g3
(I0
tp424
g5
tp425
Rp426
(I1
(I1
tp427
g12
I00
S'\xfb\xb18\x0c\xdfc\x8fA'
p428
tp429
bsS'1629'
p430
g2
(g3
(I0
tp431
g5
tp432
Rp433
(I1
(I1
tp434
g12
I00
S'\x15w\xa6\xa9\x1b(\x91A'
p435
tp436
bsS'1628'
p437
g2
(g3
(I0
tp438
g5
tp439
Rp440
(I1
(I1
tp441
g12
I00
S"e\xdf\x03\xa5\xae'\\A"
p442
tp443
bsS'559'
p444
g2
(g3
(I0
tp445
g5
tp446
Rp447
(I1
(I1
tp448
g12
I00
S'\xa9\xbay\x83m\xfawA'
p449
tp450
bsS'558'
p451
g2
(g3
(I0
tp452
g5
tp453
Rp454
(I1
(I1
tp455
g12
I00
S'3\x18\xaa>\xc0b\x8aA'
p456
tp457
bsS'1217'
p458
g2
(g3
(I0
tp459
g5
tp460
Rp461
(I1
(I1
tp462
g12
I00
S'\x15V\xba\x03\xd0\xb2\x9dA'
p463
tp464
bsS'555'
p465
g2
(g3
(I0
tp466
g5
tp467
Rp468
(I1
(I1
tp469
g12
I00
S'\xe2\xa2\xff\xbel\x90\x87A'
p470
tp471
bsS'557'
p472
g2
(g3
(I0
tp473
g5
tp474
Rp475
(I1
(I1
tp476
g12
I00
S'\x0f\x8en\xf0v<\x93A'
p477
tp478
bsS'556'
p479
g2
(g3
(I0
tp480
g5
tp481
Rp482
(I1
(I1
tp483
g12
I00
S'\x93\x8d\x8b\x95Q\xe8\x9eA'
p484
tp485
bsS'551'
p486
g2
(g3
(I0
tp487
g5
tp488
Rp489
(I1
(I1
tp490
g12
I00
S'/\xad\xdf\x03\x17\xe0|A'
p491
tp492
bsS'550'
p493
g2
(g3
(I0
tp494
g5
tp495
Rp496
(I1
(I1
tp497
g12
I00
S'\xc4<\x06/\xb6\x80\x84A'
p498
tp499
bsS'553'
p500
g2
(g3
(I0
tp501
g5
tp502
Rp503
(I1
(I1
tp504
g12
I00
S'[\xb5\xc5F\xe4*\x9aA'
p505
tp506
bsS'552'
p507
g2
(g3
(I0
tp508
g5
tp509
Rp510
(I1
(I1
tp511
g12
I00
S'\xac\xad7\xab\xfbb\x95A'
p512
tp513
bsS'1199'
p514
g2
(g3
(I0
tp515
g5
tp516
Rp517
(I1
(I1
tp518
g12
I00
S'\x93\xe89==\xd6\x8dA'
p519
tp520
bsS'1198'
p521
g2
(g3
(I0
tp522
g5
tp523
Rp524
(I1
(I1
tp525
g12
I00
S'\x89\xc53\x8fJ\xcf\x99A'
p526
tp527
bsS'1193'
p528
g2
(g3
(I0
tp529
g5
tp530
Rp531
(I1
(I1
tp532
g12
I00
S'\xa3D\r\x80|\xa4\x9aA'
p533
tp534
bsS'1195'
p535
g2
(g3
(I0
tp536
g5
tp537
Rp538
(I1
(I1
tp539
g12
I00
S'\xcc8\xc4ap\xa0YA'
p540
tp541
bsS'1194'
p542
g2
(g3
(I0
tp543
g5
tp544
Rp545
(I1
(I1
tp546
g12
I00
S'\xb6\xff*\xce\xfbs\x96A'
p547
tp548
bsS'1197'
p549
g2
(g3
(I0
tp550
g5
tp551
Rp552
(I1
(I1
tp553
g12
I00
S'\x00g\xc80x\x9eaA'
p554
tp555
bsS'1196'
p556
g2
(g3
(I0
tp557
g5
tp558
Rp559
(I1
(I1
tp560
g12
I00
S'\x0b\xec\x05\xa41\x13\x89A'
p561
tp562
bsS'1759'
p563
g2
(g3
(I0
tp564
g5
tp565
Rp566
(I1
(I1
tp567
g12
I00
S'\x026\xb1\xe5\xdd\xf0iA'
p568
tp569
bsS'1758'
p570
g2
(g3
(I0
tp571
g5
tp572
Rp573
(I1
(I1
tp574
g12
I00
S'\x026\xb1\xe5\xdd\xf0iA'
p575
tp576
bsS'1757'
p577
g2
(g3
(I0
tp578
g5
tp579
Rp580
(I1
(I1
tp581
g12
I00
S'\x026\xb1\xe5\xdd\xf0iA'
p582
tp583
bsS'1756'
p584
g2
(g3
(I0
tp585
g5
tp586
Rp587
(I1
(I1
tp588
g12
I00
S'\x026\xb1\xe5\xdd\xf0iA'
p589
tp590
bsS'1755'
p591
g2
(g3
(I0
tp592
g5
tp593
Rp594
(I1
(I1
tp595
g12
I00
S'\x026\xb1\xe5\xdd\xf0iA'
p596
tp597
bsS'1754'
p598
g2
(g3
(I0
tp599
g5
tp600
Rp601
(I1
(I1
tp602
g12
I00
S'\x026\xb1\xe5\xdd\xf0iA'
p603
tp604
bsS'1753'
p605
g2
(g3
(I0
tp606
g5
tp607
Rp608
(I1
(I1
tp609
g12
I00
S'\x026\xb1\xe5\xdd\xf0iA'
p610
tp611
bsS'1752'
p612
g2
(g3
(I0
tp613
g5
tp614
Rp615
(I1
(I1
tp616
g12
I00
S'\x026\xb1\xe5\xdd\xf0iA'
p617
tp618
bsS'1751'
p619
g2
(g3
(I0
tp620
g5
tp621
Rp622
(I1
(I1
tp623
g12
I00
S'\x026\xb1\xe5\xdd\xf0iA'
p624
tp625
bsS'1750'
p626
g2
(g3
(I0
tp627
g5
tp628
Rp629
(I1
(I1
tp630
g12
I00
S'\x026\xb1\xe5\xdd\xf0iA'
p631
tp632
bsS'1177'
p633
g2
(g3
(I0
tp634
g5
tp635
Rp636
(I1
(I1
tp637
g12
I00
S'A\xa1\xcaM\xc4-[A'
p638
tp639
bsS'1176'
p640
g2
(g3
(I0
tp641
g5
tp642
Rp643
(I1
(I1
tp644
g12
I00
S'\xf6\xb9\xcd\x7f\xe26\xa7A'
p645
tp646
bsS'1175'
p647
g2
(g3
(I0
tp648
g5
tp649
Rp650
(I1
(I1
tp651
g12
I00
S'\x87\xab\xab!v\xdd\x97A'
p652
tp653
bsS'1174'
p654
g2
(g3
(I0
tp655
g5
tp656
Rp657
(I1
(I1
tp658
g12
I00
S'\xf47\x11\x02\x9djbA'
p659
tp660
bsS'1173'
p661
g2
(g3
(I0
tp662
g5
tp663
Rp664
(I1
(I1
tp665
g12
I00
S'ra\x88`EP\xa1A'
p666
tp667
bsS'1172'
p668
g2
(g3
(I0
tp669
g5
tp670
Rp671
(I1
(I1
tp672
g12
I00
S'6\x84\xa0\x93A\xd4yA'
p673
tp674
bsS'1171'
p675
g2
(g3
(I0
tp676
g5
tp677
Rp678
(I1
(I1
tp679
g12
I00
S'h\x11\xff\xdc\x92AuA'
p680
tp681
bsS'1170'
p682
g2
(g3
(I0
tp683
g5
tp684
Rp685
(I1
(I1
tp686
g12
I00
S'\xdcg\xdcCv\xec\xa9A'
p687
tp688
bsS'1179'
p689
g2
(g3
(I0
tp690
g5
tp691
Rp692
(I1
(I1
tp693
g12
I00
S'\xfej\x08\xea\xde\x8e\x86A'
p694
tp695
bsS'1178'
p696
g2
(g3
(I0
tp697
g5
tp698
Rp699
(I1
(I1
tp700
g12
I00
S'e\x8cG\xa9C\x9f\x90A'
p701
tp702
bsS'1007'
p703
g2
(g3
(I0
tp704
g5
tp705
Rp706
(I1
(I1
tp707
g12
I00
S'B\xb3\xab\xf1$\xf9xA'
p708
tp709
bsS'1006'
p710
g2
(g3
(I0
tp711
g5
tp712
Rp713
(I1
(I1
tp714
g12
I00
S'\xaa.2t\x92\xd9\x84A'
p715
tp716
bsS'1285'
p717
g2
(g3
(I0
tp718
g5
tp719
Rp720
(I1
(I1
tp721
g12
I00
S'`T\x11\x85\xd4\xee\x82A'
p722
tp723
bsS'1284'
p724
g2
(g3
(I0
tp725
g5
tp726
Rp727
(I1
(I1
tp728
g12
I00
S'mF\x8cT\xf2\x14\x97A'
p729
tp730
bsS'1287'
p731
g2
(g3
(I0
tp732
g5
tp733
Rp734
(I1
(I1
tp735
g12
I00
S'\x0cum\n\xc9\xb0\xa4A'
p736
tp737
bsS'1286'
p738
g2
(g3
(I0
tp739
g5
tp740
Rp741
(I1
(I1
tp742
g12
I00
S'\x1e2L\xca\xcb\t\x8aA'
p743
tp744
bsS'1281'
p745
g2
(g3
(I0
tp746
g5
tp747
Rp748
(I1
(I1
tp749
g12
I00
S'\ra?>\x1cC\x9aA'
p750
tp751
bsS'1280'
p752
g2
(g3
(I0
tp753
g5
tp754
Rp755
(I1
(I1
tp756
g12
I00
S'\xbf\x1c\xfc`\rc\xa1A'
p757
tp758
bsS'1283'
p759
g2
(g3
(I0
tp760
g5
tp761
Rp762
(I1
(I1
tp763
g12
I00
S'6\xeb\x02\xd4d\x03eA'
p764
tp765
bsS'1282'
p766
g2
(g3
(I0
tp767
g5
tp768
Rp769
(I1
(I1
tp770
g12
I00
S'\xa6\x9b\\\x95\x84!\xa0A'
p771
tp772
bsS'515'
p773
g2
(g3
(I0
tp774
g5
tp775
Rp776
(I1
(I1
tp777
g12
I00
S'\x1e\xc3\xf0\xf7\xff\x83\x93A'
p778
tp779
bsS'1289'
p780
g2
(g3
(I0
tp781
g5
tp782
Rp783
(I1
(I1
tp784
g12
I00
S'BR\xd5g\xf7\xc2\x95A'
p785
tp786
bsS'1288'
p787
g2
(g3
(I0
tp788
g5
tp789
Rp790
(I1
(I1
tp791
g12
I00
S"&0\xbf\xa8q'\xa1A"
p792
tp793
bsS'514'
p794
g2
(g3
(I0
tp795
g5
tp796
Rp797
(I1
(I1
tp798
g12
I00
S'~N*\x1c\xdfh\xa1A'
p799
tp800
bsS'1579'
p801
g2
(g3
(I0
tp802
g5
tp803
Rp804
(I1
(I1
tp805
g12
I00
S'?\x88.\xda3\x99\x9fA'
p806
tp807
bsS'1578'
p808
g2
(g3
(I0
tp809
g5
tp810
Rp811
(I1
(I1
tp812
g12
I00
S'$\\7\xc1CE\xa1A'
p813
tp814
bsS'689'
p815
g2
(g3
(I0
tp816
g5
tp817
Rp818
(I1
(I1
tp819
g12
I00
S'\x86\xf8\x85O\nv\x8bA'
p820
tp821
bsS'688'
p822
g2
(g3
(I0
tp823
g5
tp824
Rp825
(I1
(I1
tp826
g12
I00
S'\x9b.\xdf[!]\x91A'
p827
tp828
bsS'1573'
p829
g2
(g3
(I0
tp830
g5
tp831
Rp832
(I1
(I1
tp833
g12
I00
S'\xca\x02\xaeN+A\xa6A'
p834
tp835
bsS'684'
p836
g2
(g3
(I0
tp837
g5
tp838
Rp839
(I1
(I1
tp840
g12
I00
S'\xae&\xe8J\xf4\xb4vA'
p841
tp842
bsS'687'
p843
g2
(g3
(I0
tp844
g5
tp845
Rp846
(I1
(I1
tp847
g12
I00
S'\xf7\xcb9\xd7\x8a\x0fcA'
p848
tp849
bsS'686'
p850
g2
(g3
(I0
tp851
g5
tp852
Rp853
(I1
(I1
tp854
g12
I00
S'+\x01\xb7\xf76\x08\x93A'
p855
tp856
bsS'681'
p857
g2
(g3
(I0
tp858
g5
tp859
Rp860
(I1
(I1
tp861
g12
I00
S'\x96\xe9\xe2/g$sA'
p862
tp863
bsS'1576'
p864
g2
(g3
(I0
tp865
g5
tp866
Rp867
(I1
(I1
tp868
g12
I00
S'<h:\r8\x81\xa3A'
p869
tp870
bsS'683'
p871
g2
(g3
(I0
tp872
g5
tp873
Rp874
(I1
(I1
tp875
g12
I00
S'z\xed\xb4\x9b\xcf\xaa\x9fA'
p876
tp877
bsS'682'
p878
g2
(g3
(I0
tp879
g5
tp880
Rp881
(I1
(I1
tp882
g12
I00
S'h\xdbj\xb5\xd6\x80\xa2A'
p883
tp884
bsS'1348'
p885
g2
(g3
(I0
tp886
g5
tp887
Rp888
(I1
(I1
tp889
g12
I00
S'W\xc1\x18\xc4\x1be{A'
p890
tp891
bsS'1226'
p892
g2
(g3
(I0
tp893
g5
tp894
Rp895
(I1
(I1
tp896
g12
I00
S'5\xd7\xce\x8e\xa8\r\xa4A'
p897
tp898
bsS'1240'
p899
g2
(g3
(I0
tp900
g5
tp901
Rp902
(I1
(I1
tp903
g12
I00
S'\xc3\xc9\xde\xea\r\x1esA'
p904
tp905
bsS'1225'
p906
g2
(g3
(I0
tp907
g5
tp908
Rp909
(I1
(I1
tp910
g12
I00
S'w\xf680\xd0.\x9bA'
p911
tp912
bsS'627'
p913
g2
(g3
(I0
tp914
g5
tp915
Rp916
(I1
(I1
tp917
g12
I00
S'K|\xce\xf9\xba\xe2\x94A'
p918
tp919
bsS'626'
p920
g2
(g3
(I0
tp921
g5
tp922
Rp923
(I1
(I1
tp924
g12
I00
S'\x82/]+\xf4\xb2\x7fA'
p925
tp926
bsS'1221'
p927
g2
(g3
(I0
tp928
g5
tp929
Rp930
(I1
(I1
tp931
g12
I00
S'\xc30\x849\xea>\x99A'
p932
tp933
bsS'624'
p934
g2
(g3
(I0
tp935
g5
tp936
Rp937
(I1
(I1
tp938
g12
I00
S'\x03\x9200}\xe8\x91A'
p939
tp940
bsS'407'
p941
g2
(g3
(I0
tp942
g5
tp943
Rp944
(I1
(I1
tp945
g12
I00
S'\xa1\xe2\xa8\x14\xd1\xbdpA'
p946
tp947
bsS'406'
p948
g2
(g3
(I0
tp949
g5
tp950
Rp951
(I1
(I1
tp952
g12
I00
S'\xb0\xf3;\x1a\x81\x9c\x86A'
p953
tp954
bsS'1373'
p955
g2
(g3
(I0
tp956
g5
tp957
Rp958
(I1
(I1
tp959
g12
I00
S'Y\x88\xac\x16`\x0b\x98A'
p960
tp961
bsS'1372'
p962
g2
(g3
(I0
tp963
g5
tp964
Rp965
(I1
(I1
tp966
g12
I00
S'b\x14q\x02]\xf7wA'
p967
tp968
bsS'1375'
p969
g2
(g3
(I0
tp970
g5
tp971
Rp972
(I1
(I1
tp973
g12
I00
S'\xc2\xe7\xc2nV\xe7\xaaA'
p974
tp975
bsS'1374'
p976
g2
(g3
(I0
tp977
g5
tp978
Rp979
(I1
(I1
tp980
g12
I00
S'\x9d\x0e\x0e\xc2Vc\x8aA'
p981
tp982
bsS'1377'
p983
g2
(g3
(I0
tp984
g5
tp985
Rp986
(I1
(I1
tp987
g12
I00
S'\xb2\xccL\xdb\xbb\x7f|A'
p988
tp989
bsS'1376'
p990
g2
(g3
(I0
tp991
g5
tp992
Rp993
(I1
(I1
tp994
g12
I00
S'\xa6\xd1 \x111C\x8aA'
p995
tp996
bsS'1379'
p997
g2
(g3
(I0
tp998
g5
tp999
Rp1000
(I1
(I1
tp1001
g12
I00
S'm\x83c\x0c\xea\xdf\x9bA'
p1002
tp1003
bsS'1378'
p1004
g2
(g3
(I0
tp1005
g5
tp1006
Rp1007
(I1
(I1
tp1008
g12
I00
S'\xae-3hw\x00\xa8A'
p1009
tp1010
bsS'409'
p1011
g2
(g3
(I0
tp1012
g5
tp1013
Rp1014
(I1
(I1
tp1015
g12
I00
S'\xb2\xf4\xf7\xb0\xbc\x92\x9bA'
p1016
tp1017
bsS'408'
p1018
g2
(g3
(I0
tp1019
g5
tp1020
Rp1021
(I1
(I1
tp1022
g12
I00
S',=\xa6\x8f\x9b\xd9\x8bA'
p1023
tp1024
bsS'453'
p1025
g2
(g3
(I0
tp1026
g5
tp1027
Rp1028
(I1
(I1
tp1029
g12
I00
S'\x13\xa8\x0b\x12OjcA'
p1030
tp1031
bsS'1344'
p1032
g2
(g3
(I0
tp1033
g5
tp1034
Rp1035
(I1
(I1
tp1036
g12
I00
S'\xdc\xbb{\xaf\xf0\xd2\x8cA'
p1037
tp1038
bsS'1345'
p1039
g2
(g3
(I0
tp1040
g5
tp1041
Rp1042
(I1
(I1
tp1043
g12
I00
S'\xf7T@\xc2cQ\x9cA'
p1044
tp1045
bsS'1346'
p1046
g2
(g3
(I0
tp1047
g5
tp1048
Rp1049
(I1
(I1
tp1050
g12
I00
S'\xd2\x8e\xec*N\x1dxA'
p1051
tp1052
bsS'379'
p1053
g2
(g3
(I0
tp1054
g5
tp1055
Rp1056
(I1
(I1
tp1057
g12
I00
S'\x90\x9b;\xe5\xd3.zA'
p1058
tp1059
bsS'378'
p1060
g2
(g3
(I0
tp1061
g5
tp1062
Rp1063
(I1
(I1
tp1064
g12
I00
S'\xcdU\x00\xac\xa5\xfd\x92A'
p1065
tp1066
bsS'647'
p1067
g2
(g3
(I0
tp1068
g5
tp1069
Rp1070
(I1
(I1
tp1071
g12
I00
S'\xa9\x83b7\xb8L\x92A'
p1072
tp1073
bsS'371'
p1074
g2
(g3
(I0
tp1075
g5
tp1076
Rp1077
(I1
(I1
tp1078
g12
I00
S'\x92}y\x00\xb1S\x81A'
p1079
tp1080
bsS'370'
p1081
g2
(g3
(I0
tp1082
g5
tp1083
Rp1084
(I1
(I1
tp1085
g12
I00
S'|\xfch\xd3\xd6\xbe\xaeA'
p1086
tp1087
bsS'373'
p1088
g2
(g3
(I0
tp1089
g5
tp1090
Rp1091
(I1
(I1
tp1092
g12
I00
S'zi\x85\r\xe2C\xafA'
p1093
tp1094
bsS'372'
p1095
g2
(g3
(I0
tp1096
g5
tp1097
Rp1098
(I1
(I1
tp1099
g12
I00
S'o\x11\xe8\x85`\xc2RA'
p1100
tp1101
bsS'375'
p1102
g2
(g3
(I0
tp1103
g5
tp1104
Rp1105
(I1
(I1
tp1106
g12
I00
S'\x91\x9c\x9a\rH\xc2bA'
p1107
tp1108
bsS'374'
p1109
g2
(g3
(I0
tp1110
g5
tp1111
Rp1112
(I1
(I1
tp1113
g12
I00
S'\x13\x07\xb9\xca\xc7\xba\x9cA'
p1114
tp1115
bsS'377'
p1116
g2
(g3
(I0
tp1117
g5
tp1118
Rp1119
(I1
(I1
tp1120
g12
I00
S'a7\x90\xf1%7\x9fA'
p1121
tp1122
bsS'376'
p1123
g2
(g3
(I0
tp1124
g5
tp1125
Rp1126
(I1
(I1
tp1127
g12
I00
S'\xb8\x89\xcf(\xca\x95bA'
p1128
tp1129
bsS'393'
p1130
g2
(g3
(I0
tp1131
g5
tp1132
Rp1133
(I1
(I1
tp1134
g12
I00
S'v\xb3\xb8\n\x1a\x96\x95A'
p1135
tp1136
bsS'392'
p1137
g2
(g3
(I0
tp1138
g5
tp1139
Rp1140
(I1
(I1
tp1141
g12
I00
S'o\x8bO\xc0f\xc6\x98A'
p1142
tp1143
bsS'391'
p1144
g2
(g3
(I0
tp1145
g5
tp1146
Rp1147
(I1
(I1
tp1148
g12
I00
S'^~\x9f\xc4\xfc-\x86A'
p1149
tp1150
bsS'390'
p1151
g2
(g3
(I0
tp1152
g5
tp1153
Rp1154
(I1
(I1
tp1155
g12
I00
S'\xb9\x12\xcc\x8d44{A'
p1156
tp1157
bsS'397'
p1158
g2
(g3
(I0
tp1159
g5
tp1160
Rp1161
(I1
(I1
tp1162
g12
I00
S'\x16w\xde\xea\xe3cuA'
p1163
tp1164
bsS'396'
p1165
g2
(g3
(I0
tp1166
g5
tp1167
Rp1168
(I1
(I1
tp1169
g12
I00
S'\xfc\xa7\xfe\xa0\n-\x87A'
p1170
tp1171
bsS'395'
p1172
g2
(g3
(I0
tp1173
g5
tp1174
Rp1175
(I1
(I1
tp1176
g12
I00
S'p\x08\xc2]\x0f\x9b\x9aA'
p1177
tp1178
bsS'394'
p1179
g2
(g3
(I0
tp1180
g5
tp1181
Rp1182
(I1
(I1
tp1183
g12
I00
S'J\xdd\xd8\xc3\xdf.\xa2A'
p1184
tp1185
bsS'399'
p1186
g2
(g3
(I0
tp1187
g5
tp1188
Rp1189
(I1
(I1
tp1190
g12
I00
S'd\xb3\x06\x00\xcf7uA'
p1191
tp1192
bsS'398'
p1193
g2
(g3
(I0
tp1194
g5
tp1195
Rp1196
(I1
(I1
tp1197
g12
I00
S'4g\xc11\x92K\xa7A'
p1198
tp1199
bsS'1246'
p1200
g2
(g3
(I0
tp1201
g5
tp1202
Rp1203
(I1
(I1
tp1204
g12
I00
S'&\xfbB\x1cSV\x95A'
p1205
tp1206
bsS'245'
p1207
g2
(g3
(I0
tp1208
g5
tp1209
Rp1210
(I1
(I1
tp1211
g12
I00
S'j&\xca\xd8\x8dabA'
p1212
tp1213
bsS'244'
p1214
g2
(g3
(I0
tp1215
g5
tp1216
Rp1217
(I1
(I1
tp1218
g12
I00
S'\xbc\xfc\xa9\xc5QntA'
p1219
tp1220
bsS'247'
p1221
g2
(g3
(I0
tp1222
g5
tp1223
Rp1224
(I1
(I1
tp1225
g12
I00
S'T6Z\xda\xa5X\x87A'
p1226
tp1227
bsS'246'
p1228
g2
(g3
(I0
tp1229
g5
tp1230
Rp1231
(I1
(I1
tp1232
g12
I00
S'\xd4\xf4]\xedAM\xa5A'
p1233
tp1234
bsS'241'
p1235
g2
(g3
(I0
tp1236
g5
tp1237
Rp1238
(I1
(I1
tp1239
g12
I00
S'\xb0Q\xef\x82\xfb\xc9\x91A'
p1240
tp1241
bsS'240'
p1242
g2
(g3
(I0
tp1243
g5
tp1244
Rp1245
(I1
(I1
tp1246
g12
I00
S'Y\xdcH7\xc1\x0b\x93A'
p1247
tp1248
bsS'243'
p1249
g2
(g3
(I0
tp1250
g5
tp1251
Rp1252
(I1
(I1
tp1253
g12
I00
S"3\xa3C\xd3'\xe1\x8dA"
p1254
tp1255
bsS'242'
p1256
g2
(g3
(I0
tp1257
g5
tp1258
Rp1259
(I1
(I1
tp1260
g12
I00
S'\xe5\xb8\x8fm\x17\x08\x94A'
p1261
tp1262
bsS'249'
p1263
g2
(g3
(I0
tp1264
g5
tp1265
Rp1266
(I1
(I1
tp1267
g12
I00
S"7'\xed\xdb^\xa5\x8fA"
p1268
tp1269
bsS'248'
p1270
g2
(g3
(I0
tp1271
g5
tp1272
Rp1273
(I1
(I1
tp1274
g12
I00
S'H[\xcc\xcb\x18a\x9aA'
p1275
tp1276
bsS'179'
p1277
g2
(g3
(I0
tp1278
g5
tp1279
Rp1280
(I1
(I1
tp1281
g12
I00
S'\x8aCw\xf6\xc6\xa2\xa1A'
p1282
tp1283
bsS'178'
p1284
g2
(g3
(I0
tp1285
g5
tp1286
Rp1287
(I1
(I1
tp1288
g12
I00
S'*\xd0\x1f:\xe1\xa5\x84A'
p1289
tp1290
bsS'177'
p1291
g2
(g3
(I0
tp1292
g5
tp1293
Rp1294
(I1
(I1
tp1295
g12
I00
S'&\x16\x1f\xc7\x15\xdf\x8aA'
p1296
tp1297
bsS'176'
p1298
g2
(g3
(I0
tp1299
g5
tp1300
Rp1301
(I1
(I1
tp1302
g12
I00
S'\x04\xa4,z\xc8\xcf\x86A'
p1303
tp1304
bsS'175'
p1305
g2
(g3
(I0
tp1306
g5
tp1307
Rp1308
(I1
(I1
tp1309
g12
I00
S'\xea\x93\xff*K+\x88A'
p1310
tp1311
bsS'174'
p1312
g2
(g3
(I0
tp1313
g5
tp1314
Rp1315
(I1
(I1
tp1316
g12
I00
S'9<\x16P\x07\xa4\x90A'
p1317
tp1318
bsS'173'
p1319
g2
(g3
(I0
tp1320
g5
tp1321
Rp1322
(I1
(I1
tp1323
g12
I00
S'\xed\x96\xc2_\x87l\x8aA'
p1324
tp1325
bsS'172'
p1326
g2
(g3
(I0
tp1327
g5
tp1328
Rp1329
(I1
(I1
tp1330
g12
I00
S' 3\xc0\x91I\xa8fA'
p1331
tp1332
bsS'171'
p1333
g2
(g3
(I0
tp1334
g5
tp1335
Rp1336
(I1
(I1
tp1337
g12
I00
S'\xbb\xcb\t\x83w\x8dqA'
p1338
tp1339
bsS'170'
p1340
g2
(g3
(I0
tp1341
g5
tp1342
Rp1343
(I1
(I1
tp1344
g12
I00
S'\x00{]\xd9\xb7\xbcaA'
p1345
tp1346
bsS'656'
p1347
g2
(g3
(I0
tp1348
g5
tp1349
Rp1350
(I1
(I1
tp1351
g12
I00
S'Xs\x8a\x93X\x94\xa2A'
p1352
tp1353
bsS'657'
p1354
g2
(g3
(I0
tp1355
g5
tp1356
Rp1357
(I1
(I1
tp1358
g12
I00
S'Y\xc8b\xb0\xf7|\x91A'
p1359
tp1360
bsS'654'
p1361
g2
(g3
(I0
tp1362
g5
tp1363
Rp1364
(I1
(I1
tp1365
g12
I00
S' \xce\xfb\x8cf,\xa3A'
p1366
tp1367
bsS'655'
p1368
g2
(g3
(I0
tp1369
g5
tp1370
Rp1371
(I1
(I1
tp1372
g12
I00
S'\xa4\xd2`\xe1\t\xc5\xa2A'
p1373
tp1374
bsS'1506'
p1375
g2
(g3
(I0
tp1376
g5
tp1377
Rp1378
(I1
(I1
tp1379
g12
I00
S'+\x1f\xce\xd9t\xe1\x9bA'
p1380
tp1381
bsS'653'
p1382
g2
(g3
(I0
tp1383
g5
tp1384
Rp1385
(I1
(I1
tp1386
g12
I00
S'W<\xac\xb0\xa6\xe3\x92A'
p1387
tp1388
bsS'651'
p1389
g2
(g3
(I0
tp1390
g5
tp1391
Rp1392
(I1
(I1
tp1393
g12
I00
S'T\xbd\xebB[\xc4\x99A'
p1394
tp1395
bsS'659'
p1396
g2
(g3
(I0
tp1397
g5
tp1398
Rp1399
(I1
(I1
tp1400
g12
I00
S'\xd3\x99g\xe9\x91\xf1\x92A'
p1401
tp1402
bsS'1362'
p1403
g2
(g3
(I0
tp1404
g5
tp1405
Rp1406
(I1
(I1
tp1407
g12
I00
S'W\xd7\xea\x9e=\xa5\x9cA'
p1408
tp1409
bsS'1618'
p1410
g2
(g3
(I0
tp1411
g5
tp1412
Rp1413
(I1
(I1
tp1414
g12
I00
S'\xf3}\xed/\xd9G\x8fA'
p1415
tp1416
bsS'1619'
p1417
g2
(g3
(I0
tp1418
g5
tp1419
Rp1420
(I1
(I1
tp1421
g12
I00
S'\x7f\x03@\x8f7\xb8rA'
p1422
tp1423
bsS'1616'
p1424
g2
(g3
(I0
tp1425
g5
tp1426
Rp1427
(I1
(I1
tp1428
g12
I00
S'\xa0\xc7<6H\xccaA'
p1429
tp1430
bsS'1617'
p1431
g2
(g3
(I0
tp1432
g5
tp1433
Rp1434
(I1
(I1
tp1435
g12
I00
S'8\xe4\x92c\x9a\t\x8aA'
p1436
tp1437
bsS'1615'
p1438
g2
(g3
(I0
tp1439
g5
tp1440
Rp1441
(I1
(I1
tp1442
g12
I00
S'\x84\xe1W\x934\x89\x8bA'
p1443
tp1444
bsS'1612'
p1445
g2
(g3
(I0
tp1446
g5
tp1447
Rp1448
(I1
(I1
tp1449
g12
I00
S'\xa0\xfc\xb5&bDnA'
p1450
tp1451
bsS'1613'
p1452
g2
(g3
(I0
tp1453
g5
tp1454
Rp1455
(I1
(I1
tp1456
g12
I00
S'D\x8c_~8\x8e\x8dA'
p1457
tp1458
bsS'1610'
p1459
g2
(g3
(I0
tp1460
g5
tp1461
Rp1462
(I1
(I1
tp1463
g12
I00
S'\xfa\xea\x99i\n\x96uA'
p1464
tp1465
bsS'1611'
p1466
g2
(g3
(I0
tp1467
g5
tp1468
Rp1469
(I1
(I1
tp1470
g12
I00
S'\xb0\x9a\xe3\xf1L\xf9\x8eA'
p1471
tp1472
bsS'1363'
p1473
g2
(g3
(I0
tp1474
g5
tp1475
Rp1476
(I1
(I1
tp1477
g12
I00
S'a\xe9\xceB;\xfc\x95A'
p1478
tp1479
bsS'1768'
p1480
g2
(g3
(I0
tp1481
g5
tp1482
Rp1483
(I1
(I1
tp1484
g12
I00
S'\x026\xb1\xe5\xdd\xf0iA'
p1485
tp1486
bsS'1762'
p1487
g2
(g3
(I0
tp1488
g5
tp1489
Rp1490
(I1
(I1
tp1491
g12
I00
S'\x026\xb1\xe5\xdd\xf0iA'
p1492
tp1493
bsS'1763'
p1494
g2
(g3
(I0
tp1495
g5
tp1496
Rp1497
(I1
(I1
tp1498
g12
I00
S'\x026\xb1\xe5\xdd\xf0iA'
p1499
tp1500
bsS'1760'
p1501
g2
(g3
(I0
tp1502
g5
tp1503
Rp1504
(I1
(I1
tp1505
g12
I00
S'\x026\xb1\xe5\xdd\xf0iA'
p1506
tp1507
bsS'1761'
p1508
g2
(g3
(I0
tp1509
g5
tp1510
Rp1511
(I1
(I1
tp1512
g12
I00
S'\x026\xb1\xe5\xdd\xf0iA'
p1513
tp1514
bsS'1766'
p1515
g2
(g3
(I0
tp1516
g5
tp1517
Rp1518
(I1
(I1
tp1519
g12
I00
S'\x026\xb1\xe5\xdd\xf0iA'
p1520
tp1521
bsS'1767'
p1522
g2
(g3
(I0
tp1523
g5
tp1524
Rp1525
(I1
(I1
tp1526
g12
I00
S'\x026\xb1\xe5\xdd\xf0iA'
p1527
tp1528
bsS'1764'
p1529
g2
(g3
(I0
tp1530
g5
tp1531
Rp1532
(I1
(I1
tp1533
g12
I00
S'\x026\xb1\xe5\xdd\xf0iA'
p1534
tp1535
bsS'1765'
p1536
g2
(g3
(I0
tp1537
g5
tp1538
Rp1539
(I1
(I1
tp1540
g12
I00
S'\x026\xb1\xe5\xdd\xf0iA'
p1541
tp1542
bsS'1142'
p1543
g2
(g3
(I0
tp1544
g5
tp1545
Rp1546
(I1
(I1
tp1547
g12
I00
S'x\x13\x8b\x98=\xaf\xa0A'
p1548
tp1549
bsS'1143'
p1550
g2
(g3
(I0
tp1551
g5
tp1552
Rp1553
(I1
(I1
tp1554
g12
I00
S'q\xe9\x17Olg\x9dA'
p1555
tp1556
bsS'1140'
p1557
g2
(g3
(I0
tp1558
g5
tp1559
Rp1560
(I1
(I1
tp1561
g12
I00
S'\x85d;\xc3f\xbdvA'
p1562
tp1563
bsS'1141'
p1564
g2
(g3
(I0
tp1565
g5
tp1566
Rp1567
(I1
(I1
tp1568
g12
I00
S'\xa7\xec\xa5\xe8q\xecoA'
p1569
tp1570
bsS'1146'
p1571
g2
(g3
(I0
tp1572
g5
tp1573
Rp1574
(I1
(I1
tp1575
g12
I00
S"'\xf9\x0c\x86\x19\xde\x97A"
p1576
tp1577
bsS'1147'
p1578
g2
(g3
(I0
tp1579
g5
tp1580
Rp1581
(I1
(I1
tp1582
g12
I00
S'\xd9KKq}\x06\x98A'
p1583
tp1584
bsS'1144'
p1585
g2
(g3
(I0
tp1586
g5
tp1587
Rp1588
(I1
(I1
tp1589
g12
I00
S',\xb2\xe2F\x03\xf1\xa1A'
p1590
tp1591
bsS'1145'
p1592
g2
(g3
(I0
tp1593
g5
tp1594
Rp1595
(I1
(I1
tp1596
g12
I00
S')\x88\xc1\xa3\x00\x9f\x90A'
p1597
tp1598
bsS'1148'
p1599
g2
(g3
(I0
tp1600
g5
tp1601
Rp1602
(I1
(I1
tp1603
g12
I00
S'\xdd\x8f&\xcb)\xde\x90A'
p1604
tp1605
bsS'1149'
p1606
g2
(g3
(I0
tp1607
g5
tp1608
Rp1609
(I1
(I1
tp1610
g12
I00
S'\xe1\xc0:Rt\xdb\x90A'
p1611
tp1612
bsS'692'
p1613
g2
(g3
(I0
tp1614
g5
tp1615
Rp1616
(I1
(I1
tp1617
g12
I00
S'\xfd\x83\xfb08\n\x92A'
p1618
tp1619
bsS'693'
p1620
g2
(g3
(I0
tp1621
g5
tp1622
Rp1623
(I1
(I1
tp1624
g12
I00
S' /f\xaa\x9b5\xa0A'
p1625
tp1626
bsS'690'
p1627
g2
(g3
(I0
tp1628
g5
tp1629
Rp1630
(I1
(I1
tp1631
g12
I00
S'\xf8C\x86\xa9\xd6\x06\xa7A'
p1632
tp1633
bsS'691'
p1634
g2
(g3
(I0
tp1635
g5
tp1636
Rp1637
(I1
(I1
tp1638
g12
I00
S'\x0e\xa1]\xa9*\xd6aA'
p1639
tp1640
bsS'1542'
p1641
g2
(g3
(I0
tp1642
g5
tp1643
Rp1644
(I1
(I1
tp1645
g12
I00
S'\x84\x06\x06\xa7!w\x82A'
p1646
tp1647
bsS'1543'
p1648
g2
(g3
(I0
tp1649
g5
tp1650
Rp1651
(I1
(I1
tp1652
g12
I00
S'\x8a\x89B\x9c\xa7\xd9\x9fA'
p1653
tp1654
bsS'694'
p1655
g2
(g3
(I0
tp1656
g5
tp1657
Rp1658
(I1
(I1
tp1659
g12
I00
S'T\xbd\x1dP\xcc\xe5\xa1A'
p1660
tp1661
bsS'1541'
p1662
g2
(g3
(I0
tp1663
g5
tp1664
Rp1665
(I1
(I1
tp1666
g12
I00
S'\xb0\x04\xfa\xb1MD\x8cA'
p1667
tp1668
bsS'698'
p1669
g2
(g3
(I0
tp1670
g5
tp1671
Rp1672
(I1
(I1
tp1673
g12
I00
S'\\\xbf4\x0b\x04\xe4\x82A'
p1674
tp1675
bsS'699'
p1676
g2
(g3
(I0
tp1677
g5
tp1678
Rp1679
(I1
(I1
tp1680
g12
I00
S'\x82\xd7\xc5\xf1!"xA'
p1681
tp1682
bsS'1548'
p1683
g2
(g3
(I0
tp1684
g5
tp1685
Rp1686
(I1
(I1
tp1687
g12
I00
S'\xa7\x85\xf1tN~|A'
p1688
tp1689
bsS'1549'
p1690
g2
(g3
(I0
tp1691
g5
tp1692
Rp1693
(I1
(I1
tp1694
g12
I00
S'\xe0C\xb4\xc5\xdb\xd9\x94A'
p1695
tp1696
bsS'542'
p1697
g2
(g3
(I0
tp1698
g5
tp1699
Rp1700
(I1
(I1
tp1701
g12
I00
S'\x14\xd9\xc3\x9d\xa0\xfafA'
p1702
tp1703
bsS'543'
p1704
g2
(g3
(I0
tp1705
g5
tp1706
Rp1707
(I1
(I1
tp1708
g12
I00
S'a\x8f\x90|\xa1A\x95A'
p1709
tp1710
bsS'540'
p1711
g2
(g3
(I0
tp1712
g5
tp1713
Rp1714
(I1
(I1
tp1715
g12
I00
S'\xd4\x8d\xc3\xad\xc6z\xb1A'
p1716
tp1717
bsS'541'
p1718
g2
(g3
(I0
tp1719
g5
tp1720
Rp1721
(I1
(I1
tp1722
g12
I00
S'\xc2\x88\xcbn=-tA'
p1723
tp1724
bsS'547'
p1725
g2
(g3
(I0
tp1726
g5
tp1727
Rp1728
(I1
(I1
tp1729
g12
I00
S'\x0b\x06\x88+D|\xa9A'
p1730
tp1731
bsS'544'
p1732
g2
(g3
(I0
tp1733
g5
tp1734
Rp1735
(I1
(I1
tp1736
g12
I00
S'8\xa9!il\x85vA'
p1737
tp1738
bsS'545'
p1739
g2
(g3
(I0
tp1740
g5
tp1741
Rp1742
(I1
(I1
tp1743
g12
I00
S'\xe3]\xdb0Z5\x9fA'
p1744
tp1745
bsS'548'
p1746
g2
(g3
(I0
tp1747
g5
tp1748
Rp1749
(I1
(I1
tp1750
g12
I00
S'c1\xb7\xae\x9fg\x85A'
p1751
tp1752
bsS'549'
p1753
g2
(g3
(I0
tp1754
g5
tp1755
Rp1756
(I1
(I1
tp1757
g12
I00
S'~:E\xd4\xb6\xee\x8dA'
p1758
tp1759
bsS'1782'
p1760
g2
(g3
(I0
tp1761
g5
tp1762
Rp1763
(I1
(I1
tp1764
g12
I00
S'\x026\xb1\xe5\xdd\xf0iA'
p1765
tp1766
bsS'761'
p1767
g2
(g3
(I0
tp1768
g5
tp1769
Rp1770
(I1
(I1
tp1771
g12
I00
S':*\xdfx\xfe\x9a\x91A'
p1772
tp1773
bsS'766'
p1774
g2
(g3
(I0
tp1775
g5
tp1776
Rp1777
(I1
(I1
tp1778
g12
I00
S'\x01V\xa1\xc53=\x95A'
p1779
tp1780
bsS'1785'
p1781
g2
(g3
(I0
tp1782
g5
tp1783
Rp1784
(I1
(I1
tp1785
g12
I00
S'\x026\xb1\xe5\xdd\xf0iA'
p1786
tp1787
bsS'765'
p1788
g2
(g3
(I0
tp1789
g5
tp1790
Rp1791
(I1
(I1
tp1792
g12
I00
S'\xb9J\x1erc\xad\x93A'
p1793
tp1794
bsS'414'
p1795
g2
(g3
(I0
tp1796
g5
tp1797
Rp1798
(I1
(I1
tp1799
g12
I00
S'\xfa\xcf\x07@W\x14\xa5A'
p1800
tp1801
bsS'415'
p1802
g2
(g3
(I0
tp1803
g5
tp1804
Rp1805
(I1
(I1
tp1806
g12
I00
S'\xd4\\h\x8e\x1d\xebdA'
p1807
tp1808
bsS'416'
p1809
g2
(g3
(I0
tp1810
g5
tp1811
Rp1812
(I1
(I1
tp1813
g12
I00
S'\xcd\xf6\x9bQ\xe4\xe7\x95A'
p1814
tp1815
bsS'417'
p1816
g2
(g3
(I0
tp1817
g5
tp1818
Rp1819
(I1
(I1
tp1820
g12
I00
S'\x11yQ\xb3\n\xa6\x93A'
p1821
tp1822
bsS'410'
p1823
g2
(g3
(I0
tp1824
g5
tp1825
Rp1826
(I1
(I1
tp1827
g12
I00
S'7tb\xc8\xc8\xad\x94A'
p1828
tp1829
bsS'411'
p1830
g2
(g3
(I0
tp1831
g5
tp1832
Rp1833
(I1
(I1
tp1834
g12
I00
S'W\x8f5\\\xdf\xe9\x86A'
p1835
tp1836
bsS'412'
p1837
g2
(g3
(I0
tp1838
g5
tp1839
Rp1840
(I1
(I1
tp1841
g12
I00
S'[\xe3c\xb2\xa8_\x9cA'
p1842
tp1843
bsS'413'
p1844
g2
(g3
(I0
tp1845
g5
tp1846
Rp1847
(I1
(I1
tp1848
g12
I00
S'\x97\xfc\x9b\x8d\xbf\x9fWA'
p1849
tp1850
bsS'1385'
p1851
g2
(g3
(I0
tp1852
g5
tp1853
Rp1854
(I1
(I1
tp1855
g12
I00
S'T\x10\xf5\xa3\x84c\xaaA'
p1856
tp1857
bsS'1386'
p1858
g2
(g3
(I0
tp1859
g5
tp1860
Rp1861
(I1
(I1
tp1862
g12
I00
S'\x8c\xe7\x89"\x10\x8b\x85A'
p1863
tp1864
bsS'1387'
p1865
g2
(g3
(I0
tp1866
g5
tp1867
Rp1868
(I1
(I1
tp1869
g12
I00
S'W\xe0\xcd\xbc\x82 \x89A'
p1870
tp1871
bsS'1380'
p1872
g2
(g3
(I0
tp1873
g5
tp1874
Rp1875
(I1
(I1
tp1876
g12
I00
S'\x10b\xdfc/~{A'
p1877
tp1878
bsS'419'
p1879
g2
(g3
(I0
tp1880
g5
tp1881
Rp1882
(I1
(I1
tp1883
g12
I00
S'K\xcf\x96U\xf3\xc6aA'
p1884
tp1885
bsS'1382'
p1886
g2
(g3
(I0
tp1887
g5
tp1888
Rp1889
(I1
(I1
tp1890
g12
I00
S'\xc6\x99\xe0\x1a\x89>\x8fA'
p1891
tp1892
bsS'1383'
p1893
g2
(g3
(I0
tp1894
g5
tp1895
Rp1896
(I1
(I1
tp1897
g12
I00
S'\xbc\xb7g\x1eZ\x12\xa6A'
p1898
tp1899
bsS'369'
p1900
g2
(g3
(I0
tp1901
g5
tp1902
Rp1903
(I1
(I1
tp1904
g12
I00
S'\x875\x99\x03\xbb\x02\xa3A'
p1905
tp1906
bsS'366'
p1907
g2
(g3
(I0
tp1908
g5
tp1909
Rp1910
(I1
(I1
tp1911
g12
I00
S'\xfck\xc4^\x8f\xe5\xa3A'
p1912
tp1913
bsS'367'
p1914
g2
(g3
(I0
tp1915
g5
tp1916
Rp1917
(I1
(I1
tp1918
g12
I00
S'p^C\x01\xad\xa5xA'
p1919
tp1920
bsS'364'
p1921
g2
(g3
(I0
tp1922
g5
tp1923
Rp1924
(I1
(I1
tp1925
g12
I00
S's0\x049\xb8\xd9gA'
p1926
tp1927
bsS'365'
p1928
g2
(g3
(I0
tp1929
g5
tp1930
Rp1931
(I1
(I1
tp1932
g12
I00
S'\xf4[(kN\xf9TA'
p1933
tp1934
bsS'362'
p1935
g2
(g3
(I0
tp1936
g5
tp1937
Rp1938
(I1
(I1
tp1939
g12
I00
S'G0r\xc5\x1c\xf9SA'
p1940
tp1941
bsS'363'
p1942
g2
(g3
(I0
tp1943
g5
tp1944
Rp1945
(I1
(I1
tp1946
g12
I00
S'\x9a\x1b\x9ea"uoA'
p1947
tp1948
bsS'360'
p1949
g2
(g3
(I0
tp1950
g5
tp1951
Rp1952
(I1
(I1
tp1953
g12
I00
S'T\xcc^\xd1\xe5\x91\x9dA'
p1954
tp1955
bsS'361'
p1956
g2
(g3
(I0
tp1957
g5
tp1958
Rp1959
(I1
(I1
tp1960
g12
I00
S'=T\xeb\x8buY\x95A'
p1961
tp1962
bsS'380'
p1963
g2
(g3
(I0
tp1964
g5
tp1965
Rp1966
(I1
(I1
tp1967
g12
I00
S'\x07iWP\xca\x12\xa9A'
p1968
tp1969
bsS'381'
p1970
g2
(g3
(I0
tp1971
g5
tp1972
Rp1973
(I1
(I1
tp1974
g12
I00
S'(j)\x07\xd7\x9f\x83A'
p1975
tp1976
bsS'382'
p1977
g2
(g3
(I0
tp1978
g5
tp1979
Rp1980
(I1
(I1
tp1981
g12
I00
S'\xa6\x8c\xed\xa3\xed\xff\x96A'
p1982
tp1983
bsS'383'
p1984
g2
(g3
(I0
tp1985
g5
tp1986
Rp1987
(I1
(I1
tp1988
g12
I00
S'\xcaQ\xb5\x9a4\x11\x85A'
p1989
tp1990
bsS'384'
p1991
g2
(g3
(I0
tp1992
g5
tp1993
Rp1994
(I1
(I1
tp1995
g12
I00
S'\x18\xa4-\xf8Y\x03}A'
p1996
tp1997
bsS'385'
p1998
g2
(g3
(I0
tp1999
g5
tp2000
Rp2001
(I1
(I1
tp2002
g12
I00
S'\xea\x9aI\x97\x94\x98YA'
p2003
tp2004
bsS'386'
p2005
g2
(g3
(I0
tp2006
g5
tp2007
Rp2008
(I1
(I1
tp2009
g12
I00
S'&V\xb3\x04\xdc>\x88A'
p2010
tp2011
bsS'387'
p2012
g2
(g3
(I0
tp2013
g5
tp2014
Rp2015
(I1
(I1
tp2016
g12
I00
S'\xe6\xbdk\x95q\xbbqA'
p2017
tp2018
bsS'388'
p2019
g2
(g3
(I0
tp2020
g5
tp2021
Rp2022
(I1
(I1
tp2023
g12
I00
S'y\x00\xa7\xe9I4\x98A'
p2024
tp2025
bsS'389'
p2026
g2
(g3
(I0
tp2027
g5
tp2028
Rp2029
(I1
(I1
tp2030
g12
I00
S'\xf1GA\xff_\x1e\x9dA'
p2031
tp2032
bsS'1253'
p2033
g2
(g3
(I0
tp2034
g5
tp2035
Rp2036
(I1
(I1
tp2037
g12
I00
S'i$\x8a\xd4\x04+\x93A'
p2038
tp2039
bsS'258'
p2040
g2
(g3
(I0
tp2041
g5
tp2042
Rp2043
(I1
(I1
tp2044
g12
I00
S'0\x82\x88\x84\xb1\x00YA'
p2045
tp2046
bsS'252'
p2047
g2
(g3
(I0
tp2048
g5
tp2049
Rp2050
(I1
(I1
tp2051
g12
I00
S'D\xb25\x0f\xe9\xc1[A'
p2052
tp2053
bsS'253'
p2054
g2
(g3
(I0
tp2055
g5
tp2056
Rp2057
(I1
(I1
tp2058
g12
I00
S'C\xc2\xf6\x07\xb6\xc2\x80A'
p2059
tp2060
bsS'250'
p2061
g2
(g3
(I0
tp2062
g5
tp2063
Rp2064
(I1
(I1
tp2065
g12
I00
S'\x05\xe6\xd52\xb9\xbexA'
p2066
tp2067
bsS'251'
p2068
g2
(g3
(I0
tp2069
g5
tp2070
Rp2071
(I1
(I1
tp2072
g12
I00
S'\xb8\xc1\x1bQ\xc5u\xa0A'
p2073
tp2074
bsS'256'
p2075
g2
(g3
(I0
tp2076
g5
tp2077
Rp2078
(I1
(I1
tp2079
g12
I00
S'%?P_.\xe1\x9bA'
p2080
tp2081
bsS'257'
p2082
g2
(g3
(I0
tp2083
g5
tp2084
Rp2085
(I1
(I1
tp2086
g12
I00
S'M"\x0b\xcdb\xf5\x9bA'
p2087
tp2088
bsS'254'
p2089
g2
(g3
(I0
tp2090
g5
tp2091
Rp2092
(I1
(I1
tp2093
g12
I00
S'5\x9eC\x91\x8ev\x96A'
p2094
tp2095
bsS'255'
p2096
g2
(g3
(I0
tp2097
g5
tp2098
Rp2099
(I1
(I1
tp2100
g12
I00
S'\xa2\xd9F|Z\xab\x8cA'
p2101
tp2102
bsS'1849'
p2103
g2
(g3
(I0
tp2104
g5
tp2105
Rp2106
(I1
(I1
tp2107
g12
I00
S'\x026\xb1\xe5\xdd\xf0iA'
p2108
tp2109
bsS'1848'
p2110
g2
(g3
(I0
tp2111
g5
tp2112
Rp2113
(I1
(I1
tp2114
g12
I00
S'\x026\xb1\xe5\xdd\xf0iA'
p2115
tp2116
bsS'168'
p2117
g2
(g3
(I0
tp2118
g5
tp2119
Rp2120
(I1
(I1
tp2121
g12
I00
S'\xf6V\x88\x02\x16\xf6\x87A'
p2122
tp2123
bsS'169'
p2124
g2
(g3
(I0
tp2125
g5
tp2126
Rp2127
(I1
(I1
tp2128
g12
I00
S'\x9b\xd0\xff\xc4\xa5\xcf\xa1A'
p2129
tp2130
bsS'164'
p2131
g2
(g3
(I0
tp2132
g5
tp2133
Rp2134
(I1
(I1
tp2135
g12
I00
S'\x7f\x0e\x86\xd6\xe8\xd6\x8dA'
p2136
tp2137
bsS'165'
p2138
g2
(g3
(I0
tp2139
g5
tp2140
Rp2141
(I1
(I1
tp2142
g12
I00
S'^!\xba}\xc9\xe7\xa7A'
p2143
tp2144
bsS'166'
p2145
g2
(g3
(I0
tp2146
g5
tp2147
Rp2148
(I1
(I1
tp2149
g12
I00
S'\xc0E\xa0\xfb`\xb6sA'
p2150
tp2151
bsS'167'
p2152
g2
(g3
(I0
tp2153
g5
tp2154
Rp2155
(I1
(I1
tp2156
g12
I00
S'\xf3\x83\x9a\xeb\x89.\x97A'
p2157
tp2158
bsS'160'
p2159
g2
(g3
(I0
tp2160
g5
tp2161
Rp2162
(I1
(I1
tp2163
g12
I00
S'\xfb\xe1\x8bg\xf3\xaf\x9aA'
p2164
tp2165
bsS'161'
p2166
g2
(g3
(I0
tp2167
g5
tp2168
Rp2169
(I1
(I1
tp2170
g12
I00
S'\t\xaa\xde+(\xac\xa1A'
p2171
tp2172
bsS'162'
p2173
g2
(g3
(I0
tp2174
g5
tp2175
Rp2176
(I1
(I1
tp2177
g12
I00
S'\xd2\xd5LN\xb4J\xa0A'
p2178
tp2179
bsS'163'
p2180
g2
(g3
(I0
tp2181
g5
tp2182
Rp2183
(I1
(I1
tp2184
g12
I00
S'D&w\x83\xcf\xa1\x9dA'
p2185
tp2186
bsS'1841'
p2187
g2
(g3
(I0
tp2188
g5
tp2189
Rp2190
(I1
(I1
tp2191
g12
I00
S'\x026\xb1\xe5\xdd\xf0iA'
p2192
tp2193
bsS'1840'
p2194
g2
(g3
(I0
tp2195
g5
tp2196
Rp2197
(I1
(I1
tp2198
g12
I00
S'\x026\xb1\xe5\xdd\xf0iA'
p2199
tp2200
bsS'1090'
p2201
g2
(g3
(I0
tp2202
g5
tp2203
Rp2204
(I1
(I1
tp2205
g12
I00
S'\xd0b\xeag\x86\xc4jA'
p2206
tp2207
bsS'1091'
p2208
g2
(g3
(I0
tp2209
g5
tp2210
Rp2211
(I1
(I1
tp2212
g12
I00
S'\x92\xe3]o7j\x90A'
p2213
tp2214
bsS'1814'
p2215
g2
(g3
(I0
tp2216
g5
tp2217
Rp2218
(I1
(I1
tp2219
g12
I00
S'\x026\xb1\xe5\xdd\xf0iA'
p2220
tp2221
bsS'1815'
p2222
g2
(g3
(I0
tp2223
g5
tp2224
Rp2225
(I1
(I1
tp2226
g12
I00
S'\x026\xb1\xe5\xdd\xf0iA'
p2227
tp2228
bsS'1816'
p2229
g2
(g3
(I0
tp2230
g5
tp2231
Rp2232
(I1
(I1
tp2233
g12
I00
S'\x026\xb1\xe5\xdd\xf0iA'
p2234
tp2235
bsS'1817'
p2236
g2
(g3
(I0
tp2237
g5
tp2238
Rp2239
(I1
(I1
tp2240
g12
I00
S'\x026\xb1\xe5\xdd\xf0iA'
p2241
tp2242
bsS'1810'
p2243
g2
(g3
(I0
tp2244
g5
tp2245
Rp2246
(I1
(I1
tp2247
g12
I00
S'\x026\xb1\xe5\xdd\xf0iA'
p2248
tp2249
bsS'1811'
p2250
g2
(g3
(I0
tp2251
g5
tp2252
Rp2253
(I1
(I1
tp2254
g12
I00
S'\x026\xb1\xe5\xdd\xf0iA'
p2255
tp2256
bsS'1812'
p2257
g2
(g3
(I0
tp2258
g5
tp2259
Rp2260
(I1
(I1
tp2261
g12
I00
S'\x026\xb1\xe5\xdd\xf0iA'
p2262
tp2263
bsS'1813'
p2264
g2
(g3
(I0
tp2265
g5
tp2266
Rp2267
(I1
(I1
tp2268
g12
I00
S'\x026\xb1\xe5\xdd\xf0iA'
p2269
tp2270
bsS'1818'
p2271
g2
(g3
(I0
tp2272
g5
tp2273
Rp2274
(I1
(I1
tp2275
g12
I00
S'\x026\xb1\xe5\xdd\xf0iA'
p2276
tp2277
bsS'1819'
p2278
g2
(g3
(I0
tp2279
g5
tp2280
Rp2281
(I1
(I1
tp2282
g12
I00
S'\x026\xb1\xe5\xdd\xf0iA'
p2283
tp2284
bsS'1098'
p2285
g2
(g3
(I0
tp2286
g5
tp2287
Rp2288
(I1
(I1
tp2289
g12
I00
S'\xa6$\xf4\xbd*\x88~A'
p2290
tp2291
bsS'671'
p2292
g2
(g3
(I0
tp2293
g5
tp2294
Rp2295
(I1
(I1
tp2296
g12
I00
S'\x99W\xe9\x03\xc4b\x92A'
p2297
tp2298
bsS'1609'
p2299
g2
(g3
(I0
tp2300
g5
tp2301
Rp2302
(I1
(I1
tp2303
g12
I00
S'H\xb6#g\x16C\x89A'
p2304
tp2305
bsS'1608'
p2306
g2
(g3
(I0
tp2307
g5
tp2308
Rp2309
(I1
(I1
tp2310
g12
I00
S'\xe2\x05d\x86\xeb\xff\x94A'
p2311
tp2312
bsS'1601'
p2313
g2
(g3
(I0
tp2314
g5
tp2315
Rp2316
(I1
(I1
tp2317
g12
I00
S'\xdc\xfd\xd7\x9d\x1bx\xa1A'
p2318
tp2319
bsS'1600'
p2320
g2
(g3
(I0
tp2321
g5
tp2322
Rp2323
(I1
(I1
tp2324
g12
I00
S'j\r:/V.\x92A'
p2325
tp2326
bsS'1603'
p2327
g2
(g3
(I0
tp2328
g5
tp2329
Rp2330
(I1
(I1
tp2331
g12
I00
S'M]A4xD\x97A'
p2332
tp2333
bsS'1602'
p2334
g2
(g3
(I0
tp2335
g5
tp2336
Rp2337
(I1
(I1
tp2338
g12
I00
S'\x13\x88\xb9iPF\x8fA'
p2339
tp2340
bsS'1604'
p2341
g2
(g3
(I0
tp2342
g5
tp2343
Rp2344
(I1
(I1
tp2345
g12
I00
S'\xbcMP\xf9\xd9\xa1\x9cA'
p2346
tp2347
bsS'1607'
p2348
g2
(g3
(I0
tp2349
g5
tp2350
Rp2351
(I1
(I1
tp2352
g12
I00
S'\xf6>1\xb0\x95\xef\x8aA'
p2353
tp2354
bsS'808'
p2355
g2
(g3
(I0
tp2356
g5
tp2357
Rp2358
(I1
(I1
tp2359
g12
I00
S'\xc3\x1d\xf1~\xe3\xc1aA'
p2360
tp2361
bsS'803'
p2362
g2
(g3
(I0
tp2363
g5
tp2364
Rp2365
(I1
(I1
tp2366
g12
I00
S'C:\x19\xfb\x8b\xf3\x9bA'
p2367
tp2368
bsS'802'
p2369
g2
(g3
(I0
tp2370
g5
tp2371
Rp2372
(I1
(I1
tp2373
g12
I00
S'\xda3\xec\x95\x05\xb1\x8cA'
p2374
tp2375
bsS'801'
p2376
g2
(g3
(I0
tp2377
g5
tp2378
Rp2379
(I1
(I1
tp2380
g12
I00
S'^+a#\xe4\x95zA'
p2381
tp2382
bsS'800'
p2383
g2
(g3
(I0
tp2384
g5
tp2385
Rp2386
(I1
(I1
tp2387
g12
I00
S'\xbe\x03\x0b\xcc\x7f`\x91A'
p2388
tp2389
bsS'807'
p2390
g2
(g3
(I0
tp2391
g5
tp2392
Rp2393
(I1
(I1
tp2394
g12
I00
S'\xbd\xa0\x16\xd8\xb9\xfb_A'
p2395
tp2396
bsS'806'
p2397
g2
(g3
(I0
tp2398
g5
tp2399
Rp2400
(I1
(I1
tp2401
g12
I00
S'\x9f\x93\xf0usE\xa0A'
p2402
tp2403
bsS'805'
p2404
g2
(g3
(I0
tp2405
g5
tp2406
Rp2407
(I1
(I1
tp2408
g12
I00
S'>\xda\x89\xd5\xf4\x85\x8eA'
p2409
tp2410
bsS'804'
p2411
g2
(g3
(I0
tp2412
g5
tp2413
Rp2414
(I1
(I1
tp2415
g12
I00
S']Ga\xaaZ\x85\x92A'
p2416
tp2417
bsS'1775'
p2418
g2
(g3
(I0
tp2419
g5
tp2420
Rp2421
(I1
(I1
tp2422
g12
I00
S'\x026\xb1\xe5\xdd\xf0iA'
p2423
tp2424
bsS'1774'
p2425
g2
(g3
(I0
tp2426
g5
tp2427
Rp2428
(I1
(I1
tp2429
g12
I00
S'\x026\xb1\xe5\xdd\xf0iA'
p2430
tp2431
bsS'1777'
p2432
g2
(g3
(I0
tp2433
g5
tp2434
Rp2435
(I1
(I1
tp2436
g12
I00
S'\x026\xb1\xe5\xdd\xf0iA'
p2437
tp2438
bsS'1776'
p2439
g2
(g3
(I0
tp2440
g5
tp2441
Rp2442
(I1
(I1
tp2443
g12
I00
S'\x026\xb1\xe5\xdd\xf0iA'
p2444
tp2445
bsS'1771'
p2446
g2
(g3
(I0
tp2447
g5
tp2448
Rp2449
(I1
(I1
tp2450
g12
I00
S'\x026\xb1\xe5\xdd\xf0iA'
p2451
tp2452
bsS'1770'
p2453
g2
(g3
(I0
tp2454
g5
tp2455
Rp2456
(I1
(I1
tp2457
g12
I00
S'\x026\xb1\xe5\xdd\xf0iA'
p2458
tp2459
bsS'1772'
p2460
g2
(g3
(I0
tp2461
g5
tp2462
Rp2463
(I1
(I1
tp2464
g12
I00
S'\x026\xb1\xe5\xdd\xf0iA'
p2465
tp2466
bsS'1779'
p2467
g2
(g3
(I0
tp2468
g5
tp2469
Rp2470
(I1
(I1
tp2471
g12
I00
S'\x026\xb1\xe5\xdd\xf0iA'
p2472
tp2473
bsS'1778'
p2474
g2
(g3
(I0
tp2475
g5
tp2476
Rp2477
(I1
(I1
tp2478
g12
I00
S'\x026\xb1\xe5\xdd\xf0iA'
p2479
tp2480
bsS'1159'
p2481
g2
(g3
(I0
tp2482
g5
tp2483
Rp2484
(I1
(I1
tp2485
g12
I00
S'\x13\x98\xa2\xbb3~\x89A'
p2486
tp2487
bsS'1158'
p2488
g2
(g3
(I0
tp2489
g5
tp2490
Rp2491
(I1
(I1
tp2492
g12
I00
S'\xe7\xc6>\xa6S\xfb\x9cA'
p2493
tp2494
bsS'1155'
p2495
g2
(g3
(I0
tp2496
g5
tp2497
Rp2498
(I1
(I1
tp2499
g12
I00
S'ja\xbb\xa3\x967\x89A'
p2500
tp2501
bsS'1154'
p2502
g2
(g3
(I0
tp2503
g5
tp2504
Rp2505
(I1
(I1
tp2506
g12
I00
S'\xae\xb8\xd2\xb1\x89{dA'
p2507
tp2508
bsS'1157'
p2509
g2
(g3
(I0
tp2510
g5
tp2511
Rp2512
(I1
(I1
tp2513
g12
I00
S'\r\x8dm*\x82\xd5\x9aA'
p2514
tp2515
bsS'1156'
p2516
g2
(g3
(I0
tp2517
g5
tp2518
Rp2519
(I1
(I1
tp2520
g12
I00
S'\x02b\xbe\xa4\x02a\x93A'
p2521
tp2522
bsS'1151'
p2523
g2
(g3
(I0
tp2524
g5
tp2525
Rp2526
(I1
(I1
tp2527
g12
I00
S']\x18\t\xb6\xc2\x11wA'
p2528
tp2529
bsS'1150'
p2530
g2
(g3
(I0
tp2531
g5
tp2532
Rp2533
(I1
(I1
tp2534
g12
I00
S'\xdd@\xd4C\x05\xb2\x8fA'
p2535
tp2536
bsS'1153'
p2537
g2
(g3
(I0
tp2538
g5
tp2539
Rp2540
(I1
(I1
tp2541
g12
I00
S'n\xf2\x92\xceZ\x03\x93A'
p2542
tp2543
bsS'1152'
p2544
g2
(g3
(I0
tp2545
g5
tp2546
Rp2547
(I1
(I1
tp2548
g12
I00
S's\x99\xdd\x92\xd9\x16\xa7A'
p2549
tp2550
bsS'59'
p2551
g2
(g3
(I0
tp2552
g5
tp2553
Rp2554
(I1
(I1
tp2555
g12
I00
S'\xb5U\xed\xed\x84Y\x95A'
p2556
tp2557
bsS'58'
p2558
g2
(g3
(I0
tp2559
g5
tp2560
Rp2561
(I1
(I1
tp2562
g12
I00
S'\xec\\\xc5\xca\xe8\x1cbA'
p2563
tp2564
bsS'1551'
p2565
g2
(g3
(I0
tp2566
g5
tp2567
Rp2568
(I1
(I1
tp2569
g12
I00
S'4\xcb\x14\r\xbds\x95A'
p2570
tp2571
bsS'1553'
p2572
g2
(g3
(I0
tp2573
g5
tp2574
Rp2575
(I1
(I1
tp2576
g12
I00
S'a3\x8f\xca\xeb\x16\x91A'
p2577
tp2578
bsS'1552'
p2579
g2
(g3
(I0
tp2580
g5
tp2581
Rp2582
(I1
(I1
tp2583
g12
I00
S'9g\xdc\xab\x86\xa8}A'
p2584
tp2585
bsS'1555'
p2586
g2
(g3
(I0
tp2587
g5
tp2588
Rp2589
(I1
(I1
tp2590
g12
I00
S' \xcf\x9c\xd0\xd1y\x9eA'
p2591
tp2592
bsS'1554'
p2593
g2
(g3
(I0
tp2594
g5
tp2595
Rp2596
(I1
(I1
tp2597
g12
I00
S'\x97\x0b\xd0\x99_.\x92A'
p2598
tp2599
bsS'1557'
p2600
g2
(g3
(I0
tp2601
g5
tp2602
Rp2603
(I1
(I1
tp2604
g12
I00
S'\x9f\xccW\x0e\xe2X\x93A'
p2605
tp2606
bsS'1556'
p2607
g2
(g3
(I0
tp2608
g5
tp2609
Rp2610
(I1
(I1
tp2611
g12
I00
S'\x90\x9c\xeb\x86\x81\xdd\xa5A'
p2612
tp2613
bsS'1559'
p2614
g2
(g3
(I0
tp2615
g5
tp2616
Rp2617
(I1
(I1
tp2618
g12
I00
S'\x19\xadI\x1ek|\xa1A'
p2619
tp2620
bsS'54'
p2621
g2
(g3
(I0
tp2622
g5
tp2623
Rp2624
(I1
(I1
tp2625
g12
I00
S'\x1atD"C\xa6\xa9A'
p2626
tp2627
bsS'57'
p2628
g2
(g3
(I0
tp2629
g5
tp2630
Rp2631
(I1
(I1
tp2632
g12
I00
S'\x13j!*\x86\x0c\x9eA'
p2633
tp2634
bsS'56'
p2635
g2
(g3
(I0
tp2636
g5
tp2637
Rp2638
(I1
(I1
tp2639
g12
I00
S'\xeed\x14\x9c \xed\x9fA'
p2640
tp2641
bsS'51'
p2642
g2
(g3
(I0
tp2643
g5
tp2644
Rp2645
(I1
(I1
tp2646
g12
I00
S'\xc5\xba\xb1\x9c\xee\x86\x9eA'
p2647
tp2648
bsS'50'
p2649
g2
(g3
(I0
tp2650
g5
tp2651
Rp2652
(I1
(I1
tp2653
g12
I00
S'\x05\x99\x93^\xcaQ\x9eA'
p2654
tp2655
bsS'53'
p2656
g2
(g3
(I0
tp2657
g5
tp2658
Rp2659
(I1
(I1
tp2660
g12
I00
S'GHu\xcb\xac\x03\x9fA'
p2661
tp2662
bsS'52'
p2663
g2
(g3
(I0
tp2664
g5
tp2665
Rp2666
(I1
(I1
tp2667
g12
I00
S'\x1c\x14=\xb9\xbe\xc7\x8aA'
p2668
tp2669
bsS'537'
p2670
g2
(g3
(I0
tp2671
g5
tp2672
Rp2673
(I1
(I1
tp2674
g12
I00
S'ydK\xb6D\x7f\xa8A'
p2675
tp2676
bsS'536'
p2677
g2
(g3
(I0
tp2678
g5
tp2679
Rp2680
(I1
(I1
tp2681
g12
I00
S'c\x1f\xe9\xba\x10\\\x88A'
p2682
tp2683
bsS'535'
p2684
g2
(g3
(I0
tp2685
g5
tp2686
Rp2687
(I1
(I1
tp2688
g12
I00
S'#\x1c\xd0v\xba\x10\x9cA'
p2689
tp2690
bsS'534'
p2691
g2
(g3
(I0
tp2692
g5
tp2693
Rp2694
(I1
(I1
tp2695
g12
I00
S'\x85J#\xb6!s\x90A'
p2696
tp2697
bsS'533'
p2698
g2
(g3
(I0
tp2699
g5
tp2700
Rp2701
(I1
(I1
tp2702
g12
I00
S'k\x15\xb3\xe2ah\x9eA'
p2703
tp2704
bsS'532'
p2705
g2
(g3
(I0
tp2706
g5
tp2707
Rp2708
(I1
(I1
tp2709
g12
I00
S'\xa0\x177ZJ4`A'
p2710
tp2711
bsS'531'
p2712
g2
(g3
(I0
tp2713
g5
tp2714
Rp2715
(I1
(I1
tp2716
g12
I00
S'\xc3\x0c\xb5\x8eM\x15\x9aA'
p2717
tp2718
bsS'530'
p2719
g2
(g3
(I0
tp2720
g5
tp2721
Rp2722
(I1
(I1
tp2723
g12
I00
S'\x03d\xeb"\x9b\xf7\x91A'
p2724
tp2725
bsS'539'
p2726
g2
(g3
(I0
tp2727
g5
tp2728
Rp2729
(I1
(I1
tp2730
g12
I00
S']\xf0:\x8eUijA'
p2731
tp2732
bsS'1558'
p2733
g2
(g3
(I0
tp2734
g5
tp2735
Rp2736
(I1
(I1
tp2737
g12
I00
S'c\xa3B~b\x98\x9cA'
p2738
tp2739
bsS'429'
p2740
g2
(g3
(I0
tp2741
g5
tp2742
Rp2743
(I1
(I1
tp2744
g12
I00
S't\x7f\xcdg\x01Z\x85A'
p2745
tp2746
bsS'1399'
p2747
g2
(g3
(I0
tp2748
g5
tp2749
Rp2750
(I1
(I1
tp2751
g12
I00
S'\xa6\x99\xf1\xf331\x99A'
p2752
tp2753
bsS'1398'
p2754
g2
(g3
(I0
tp2755
g5
tp2756
Rp2757
(I1
(I1
tp2758
g12
I00
S'\xac\xf4\xb6\xae\xc1\xb3\xa3A'
p2759
tp2760
bsS'421'
p2761
g2
(g3
(I0
tp2762
g5
tp2763
Rp2764
(I1
(I1
tp2765
g12
I00
S'\xfb\x95r\xee\xa5R\x92A'
p2766
tp2767
bsS'420'
p2768
g2
(g3
(I0
tp2769
g5
tp2770
Rp2771
(I1
(I1
tp2772
g12
I00
S'\x83\xe18\x17\xd3\xdf\x8eA'
p2773
tp2774
bsS'423'
p2775
g2
(g3
(I0
tp2776
g5
tp2777
Rp2778
(I1
(I1
tp2779
g12
I00
S'\x1a>\x8eJ_\xd8cA'
p2780
tp2781
bsS'422'
p2782
g2
(g3
(I0
tp2783
g5
tp2784
Rp2785
(I1
(I1
tp2786
g12
I00
S'c\xaa\xb7\xde\xe6\x1f\x94A'
p2787
tp2788
bsS'425'
p2789
g2
(g3
(I0
tp2790
g5
tp2791
Rp2792
(I1
(I1
tp2793
g12
I00
S'8?\xe3\xffi(yA'
p2794
tp2795
bsS'424'
p2796
g2
(g3
(I0
tp2797
g5
tp2798
Rp2799
(I1
(I1
tp2800
g12
I00
S'\x08R\xfb\xf8\x97\xe5oA'
p2801
tp2802
bsS'427'
p2803
g2
(g3
(I0
tp2804
g5
tp2805
Rp2806
(I1
(I1
tp2807
g12
I00
S'\xb3kD\xa1R[\x9cA'
p2808
tp2809
bsS'426'
p2810
g2
(g3
(I0
tp2811
g5
tp2812
Rp2813
(I1
(I1
tp2814
g12
I00
S'\xbe{\xe4\xaau`wA'
p2815
tp2816
bsS'229'
p2817
g2
(g3
(I0
tp2818
g5
tp2819
Rp2820
(I1
(I1
tp2821
g12
I00
S'\x01\xae\x88\x9f`\xd4\x9cA'
p2822
tp2823
bsS'228'
p2824
g2
(g3
(I0
tp2825
g5
tp2826
Rp2827
(I1
(I1
tp2828
g12
I00
S'b\xbdW\x05\x1d\xb3gA'
p2829
tp2830
bsS'227'
p2831
g2
(g3
(I0
tp2832
g5
tp2833
Rp2834
(I1
(I1
tp2835
g12
I00
S'\xbd\x95\xe9\x05\x8c_\x84A'
p2836
tp2837
bsS'226'
p2838
g2
(g3
(I0
tp2839
g5
tp2840
Rp2841
(I1
(I1
tp2842
g12
I00
S"k['\xf3\xa0I\x91A"
p2843
tp2844
bsS'225'
p2845
g2
(g3
(I0
tp2846
g5
tp2847
Rp2848
(I1
(I1
tp2849
g12
I00
S"'d3\xa4,i\x9bA"
p2850
tp2851
bsS'224'
p2852
g2
(g3
(I0
tp2853
g5
tp2854
Rp2855
(I1
(I1
tp2856
g12
I00
S'\xdb\x06\x9bP\xc3\xac{A'
p2857
tp2858
bsS'223'
p2859
g2
(g3
(I0
tp2860
g5
tp2861
Rp2862
(I1
(I1
tp2863
g12
I00
S'0\xfd\x9c\x0b\r7\x86A'
p2864
tp2865
bsS'222'
p2866
g2
(g3
(I0
tp2867
g5
tp2868
Rp2869
(I1
(I1
tp2870
g12
I00
S'\xb5\xa7\x17\xfe\x10T\x99A'
p2871
tp2872
bsS'151'
p2873
g2
(g3
(I0
tp2874
g5
tp2875
Rp2876
(I1
(I1
tp2877
g12
I00
S'Z\xd4-\xf8!\x88\x87A'
p2878
tp2879
bsS'150'
p2880
g2
(g3
(I0
tp2881
g5
tp2882
Rp2883
(I1
(I1
tp2884
g12
I00
S'\x90\\q\x8b\x07\xc4\x84A'
p2885
tp2886
bsS'153'
p2887
g2
(g3
(I0
tp2888
g5
tp2889
Rp2890
(I1
(I1
tp2891
g12
I00
S'a\xf0a\x12\xe6k\x8fA'
p2892
tp2893
bsS'152'
p2894
g2
(g3
(I0
tp2895
g5
tp2896
Rp2897
(I1
(I1
tp2898
g12
I00
S"\xa3\xa3\x90\xef\x13'\x9bA"
p2899
tp2900
bsS'155'
p2901
g2
(g3
(I0
tp2902
g5
tp2903
Rp2904
(I1
(I1
tp2905
g12
I00
S'<H\xffV\xb1\nbA'
p2906
tp2907
bsS'154'
p2908
g2
(g3
(I0
tp2909
g5
tp2910
Rp2911
(I1
(I1
tp2912
g12
I00
S'\xd9n\x8f\x0e\x91!\x99A'
p2913
tp2914
bsS'157'
p2915
g2
(g3
(I0
tp2916
g5
tp2917
Rp2918
(I1
(I1
tp2919
g12
I00
S'\xdbj\xfaLO&\x94A'
p2920
tp2921
bsS'156'
p2922
g2
(g3
(I0
tp2923
g5
tp2924
Rp2925
(I1
(I1
tp2926
g12
I00
S'6<\x88E&4\x93A'
p2927
tp2928
bsS'159'
p2929
g2
(g3
(I0
tp2930
g5
tp2931
Rp2932
(I1
(I1
tp2933
g12
I00
S'\x8d\xf54\xda[9\x97A'
p2934
tp2935
bsS'158'
p2936
g2
(g3
(I0
tp2937
g5
tp2938
Rp2939
(I1
(I1
tp2940
g12
I00
S'\xc3\xb0\xddO\xfapgA'
p2941
tp2942
bsS'1807'
p2943
g2
(g3
(I0
tp2944
g5
tp2945
Rp2946
(I1
(I1
tp2947
g12
I00
S'\x026\xb1\xe5\xdd\xf0iA'
p2948
tp2949
bsS'1806'
p2950
g2
(g3
(I0
tp2951
g5
tp2952
Rp2953
(I1
(I1
tp2954
g12
I00
S'\x026\xb1\xe5\xdd\xf0iA'
p2955
tp2956
bsS'1805'
p2957
g2
(g3
(I0
tp2958
g5
tp2959
Rp2960
(I1
(I1
tp2961
g12
I00
S'\x026\xb1\xe5\xdd\xf0iA'
p2962
tp2963
bsS'1804'
p2964
g2
(g3
(I0
tp2965
g5
tp2966
Rp2967
(I1
(I1
tp2968
g12
I00
S'\x026\xb1\xe5\xdd\xf0iA'
p2969
tp2970
bsS'1803'
p2971
g2
(g3
(I0
tp2972
g5
tp2973
Rp2974
(I1
(I1
tp2975
g12
I00
S'\x026\xb1\xe5\xdd\xf0iA'
p2976
tp2977
bsS'1801'
p2978
g2
(g3
(I0
tp2979
g5
tp2980
Rp2981
(I1
(I1
tp2982
g12
I00
S'\x026\xb1\xe5\xdd\xf0iA'
p2983
tp2984
bsS'1800'
p2985
g2
(g3
(I0
tp2986
g5
tp2987
Rp2988
(I1
(I1
tp2989
g12
I00
S'\x026\xb1\xe5\xdd\xf0iA'
p2990
tp2991
bsS'1809'
p2992
g2
(g3
(I0
tp2993
g5
tp2994
Rp2995
(I1
(I1
tp2996
g12
I00
S'\x026\xb1\xe5\xdd\xf0iA'
p2997
tp2998
bsS'1808'
p2999
g2
(g3
(I0
tp3000
g5
tp3001
Rp3002
(I1
(I1
tp3003
g12
I00
S'\x026\xb1\xe5\xdd\xf0iA'
p3004
tp3005
bsS'1256'
p3006
g2
(g3
(I0
tp3007
g5
tp3008
Rp3009
(I1
(I1
tp3010
g12
I00
S'2\xbd\xdb\xd9Z\x1d\xa6A'
p3011
tp3012
bsS'1525'
p3013
g2
(g3
(I0
tp3014
g5
tp3015
Rp3016
(I1
(I1
tp3017
g12
I00
S'y\x0e\x1e\xaahp_A'
p3018
tp3019
bsS'1526'
p3020
g2
(g3
(I0
tp3021
g5
tp3022
Rp3023
(I1
(I1
tp3024
g12
I00
S'u\x9b\xe6\xf5s\x08\x91A'
p3025
tp3026
bsS'818'
p3027
g2
(g3
(I0
tp3028
g5
tp3029
Rp3030
(I1
(I1
tp3031
g12
I00
S'N\xe8>\xa5\xc8\xb9~A'
p3032
tp3033
bsS'819'
p3034
g2
(g3
(I0
tp3035
g5
tp3036
Rp3037
(I1
(I1
tp3038
g12
I00
S'a\x85\xff6\x0b\x1f\x92A'
p3039
tp3040
bsS'1527'
p3041
g2
(g3
(I0
tp3042
g5
tp3043
Rp3044
(I1
(I1
tp3045
g12
I00
S'6V\x81\xd2ZqvA'
p3046
tp3047
bsS'810'
p3048
g2
(g3
(I0
tp3049
g5
tp3050
Rp3051
(I1
(I1
tp3052
g12
I00
S'\xb6\xcd\x8bG\xf4\x14\x8aA'
p3053
tp3054
bsS'811'
p3055
g2
(g3
(I0
tp3056
g5
tp3057
Rp3058
(I1
(I1
tp3059
g12
I00
S'\x98\xe9C\x93\xc17\x91A'
p3060
tp3061
bsS'812'
p3062
g2
(g3
(I0
tp3063
g5
tp3064
Rp3065
(I1
(I1
tp3066
g12
I00
S'\x84\x7f3\x90k\x8epA'
p3067
tp3068
bsS'813'
p3069
g2
(g3
(I0
tp3070
g5
tp3071
Rp3072
(I1
(I1
tp3073
g12
I00
S'\x92aO,\xf1\xa8\x92A'
p3074
tp3075
bsS'814'
p3076
g2
(g3
(I0
tp3077
g5
tp3078
Rp3079
(I1
(I1
tp3080
g12
I00
S'\xf8\xb1KZI\xcdfA'
p3081
tp3082
bsS'815'
p3083
g2
(g3
(I0
tp3084
g5
tp3085
Rp3086
(I1
(I1
tp3087
g12
I00
S'\xb4\x98\xb7-\xa7\xf0~A'
p3088
tp3089
bsS'816'
p3090
g2
(g3
(I0
tp3091
g5
tp3092
Rp3093
(I1
(I1
tp3094
g12
I00
S'\xef\xab z%s\x98A'
p3095
tp3096
bsS'817'
p3097
g2
(g3
(I0
tp3098
g5
tp3099
Rp3100
(I1
(I1
tp3101
g12
I00
S'\x95[\xa9\xb5\x9b\x82\x80A'
p3102
tp3103
bsS'1522'
p3104
g2
(g3
(I0
tp3105
g5
tp3106
Rp3107
(I1
(I1
tp3108
g12
I00
S' Qj?\xb8\xc1UA'
p3109
tp3110
bsS'1358'
p3111
g2
(g3
(I0
tp3112
g5
tp3113
Rp3114
(I1
(I1
tp3115
g12
I00
S'\x18\xf5\x00\x8f\xf0W\x8eA'
p3116
tp3117
bsS'1523'
p3118
g2
(g3
(I0
tp3119
g5
tp3120
Rp3121
(I1
(I1
tp3122
g12
I00
S'\xe6\x84\xd3Hq\x01\xa4A'
p3123
tp3124
bsS'1490'
p3125
g2
(g3
(I0
tp3126
g5
tp3127
Rp3128
(I1
(I1
tp3129
g12
I00
S'\x13\xbfimz\x8dBA'
p3130
tp3131
bsS'1491'
p3132
g2
(g3
(I0
tp3133
g5
tp3134
Rp3135
(I1
(I1
tp3136
g12
I00
S'\x7f\x82*\xac\xa7b\x92A'
p3137
tp3138
bsS'1492'
p3139
g2
(g3
(I0
tp3140
g5
tp3141
Rp3142
(I1
(I1
tp3143
g12
I00
S'l3Y\xcag\xc4\xa7A'
p3144
tp3145
bsS'1493'
p3146
g2
(g3
(I0
tp3147
g5
tp3148
Rp3149
(I1
(I1
tp3150
g12
I00
S'\x83\xfd\x97\x13],\x9eA'
p3151
tp3152
bsS'1494'
p3153
g2
(g3
(I0
tp3154
g5
tp3155
Rp3156
(I1
(I1
tp3157
g12
I00
S'"xA\xd2\x1f\xbf\x88A'
p3158
tp3159
bsS'1497'
p3160
g2
(g3
(I0
tp3161
g5
tp3162
Rp3163
(I1
(I1
tp3164
g12
I00
S'\xf2\xeeJ)\x12|\x8fA'
p3165
tp3166
bsS'1498'
p3167
g2
(g3
(I0
tp3168
g5
tp3169
Rp3170
(I1
(I1
tp3171
g12
I00
S'h\xc1f2\xb2\xa0\xadA'
p3172
tp3173
bsS'1499'
p3174
g2
(g3
(I0
tp3175
g5
tp3176
Rp3177
(I1
(I1
tp3178
g12
I00
S'q\xc1Y\xc8ZS\x95A'
p3179
tp3180
bsS'1395'
p3181
g2
(g3
(I0
tp3182
g5
tp3183
Rp3184
(I1
(I1
tp3185
g12
I00
S'\xefD\x96\x96\xaf\xb0\xaeA'
p3186
tp3187
bsS'1700'
p3188
g2
(g3
(I0
tp3189
g5
tp3190
Rp3191
(I1
(I1
tp3192
g12
I00
S'\xcaAZ\xad\x0bMdA'
p3193
tp3194
bsS'1701'
p3195
g2
(g3
(I0
tp3196
g5
tp3197
Rp3198
(I1
(I1
tp3199
g12
I00
S'\r\xfc\x13\xdam\xf3\x8cA'
p3200
tp3201
bsS'1702'
p3202
g2
(g3
(I0
tp3203
g5
tp3204
Rp3205
(I1
(I1
tp3206
g12
I00
S'\x04\xb1\x97*\xdb\x7f\xa1A'
p3207
tp3208
bsS'1703'
p3209
g2
(g3
(I0
tp3210
g5
tp3211
Rp3212
(I1
(I1
tp3213
g12
I00
S'Z\x08\x90\xe4\x87PaA'
p3214
tp3215
bsS'1704'
p3216
g2
(g3
(I0
tp3217
g5
tp3218
Rp3219
(I1
(I1
tp3220
g12
I00
S'L\rk\x86B\x1f\x99A'
p3221
tp3222
bsS'1705'
p3223
g2
(g3
(I0
tp3224
g5
tp3225
Rp3226
(I1
(I1
tp3227
g12
I00
S'\xca;Ql\xe7<\x95A'
p3228
tp3229
bsS'1706'
p3230
g2
(g3
(I0
tp3231
g5
tp3232
Rp3233
(I1
(I1
tp3234
g12
I00
S'\xdb3w\x1c\xb5NrA'
p3235
tp3236
bsS'1707'
p3237
g2
(g3
(I0
tp3238
g5
tp3239
Rp3240
(I1
(I1
tp3241
g12
I00
S'\xe6?\xe8\xa3\xecF\x97A'
p3242
tp3243
bsS'1708'
p3244
g2
(g3
(I0
tp3245
g5
tp3246
Rp3247
(I1
(I1
tp3248
g12
I00
S"b'X\x10\x037\x82A"
p3249
tp3250
bsS'1709'
p3251
g2
(g3
(I0
tp3252
g5
tp3253
Rp3254
(I1
(I1
tp3255
g12
I00
S'\xd7\xb5\x90B\xcdO\x94A'
p3256
tp3257
bsS'1392'
p3258
g2
(g3
(I0
tp3259
g5
tp3260
Rp3261
(I1
(I1
tp3262
g12
I00
S'\xab>\xd4\x9a\xcf>\x90A'
p3263
tp3264
bsS'1391'
p3265
g2
(g3
(I0
tp3266
g5
tp3267
Rp3268
(I1
(I1
tp3269
g12
I00
S'{\x9aJ\xe09H\x81A'
p3270
tp3271
bsS'1128'
p3272
g2
(g3
(I0
tp3273
g5
tp3274
Rp3275
(I1
(I1
tp3276
g12
I00
S'N\x19sT\xd7\x81\xa3A'
p3277
tp3278
bsS'1129'
p3279
g2
(g3
(I0
tp3280
g5
tp3281
Rp3282
(I1
(I1
tp3283
g12
I00
S'"\x06\x16l\xcf\xfemA'
p3284
tp3285
bsS'1120'
p3286
g2
(g3
(I0
tp3287
g5
tp3288
Rp3289
(I1
(I1
tp3290
g12
I00
S'\xc96\xc5\x16iM\x86A'
p3291
tp3292
bsS'1121'
p3293
g2
(g3
(I0
tp3294
g5
tp3295
Rp3296
(I1
(I1
tp3297
g12
I00
S')\x837g\t\xd6\x81A'
p3298
tp3299
bsS'1122'
p3300
g2
(g3
(I0
tp3301
g5
tp3302
Rp3303
(I1
(I1
tp3304
g12
I00
S'\x04\xe5\xde9\x9e\xb6\x86A'
p3305
tp3306
bsS'1123'
p3307
g2
(g3
(I0
tp3308
g5
tp3309
Rp3310
(I1
(I1
tp3311
g12
I00
S"\x91'[g\xaa\xd2oA"
p3312
tp3313
bsS'1124'
p3314
g2
(g3
(I0
tp3315
g5
tp3316
Rp3317
(I1
(I1
tp3318
g12
I00
S')\x9d=\xcbWN\x91A'
p3319
tp3320
bsS'1125'
p3321
g2
(g3
(I0
tp3322
g5
tp3323
Rp3324
(I1
(I1
tp3325
g12
I00
S'/\xa9W\xf8\xb6|\x98A'
p3326
tp3327
bsS'1126'
p3328
g2
(g3
(I0
tp3329
g5
tp3330
Rp3331
(I1
(I1
tp3332
g12
I00
S'=QU1\x8e\x8d\x98A'
p3333
tp3334
bsS'1127'
p3335
g2
(g3
(I0
tp3336
g5
tp3337
Rp3338
(I1
(I1
tp3339
g12
I00
S'8\x1c\xac\xbe\x0bcmA'
p3340
tp3341
bsS'524'
p3342
g2
(g3
(I0
tp3343
g5
tp3344
Rp3345
(I1
(I1
tp3346
g12
I00
S'8<\xc6\xa9\xf2\xecvA'
p3347
tp3348
bsS'525'
p3349
g2
(g3
(I0
tp3350
g5
tp3351
Rp3352
(I1
(I1
tp3353
g12
I00
S'\x0e\xeb\xc6:\xe6\x04\x8fA'
p3354
tp3355
bsS'526'
p3356
g2
(g3
(I0
tp3357
g5
tp3358
Rp3359
(I1
(I1
tp3360
g12
I00
S'f-\xb8x)\x1d\x89A'
p3361
tp3362
bsS'527'
p3363
g2
(g3
(I0
tp3364
g5
tp3365
Rp3366
(I1
(I1
tp3367
g12
I00
S'#X\x15\x9b(w\x95A'
p3368
tp3369
bsS'1018'
p3370
g2
(g3
(I0
tp3371
g5
tp3372
Rp3373
(I1
(I1
tp3374
g12
I00
S'AM\xcb:Th\x93A'
p3375
tp3376
bsS'1019'
p3377
g2
(g3
(I0
tp3378
g5
tp3379
Rp3380
(I1
(I1
tp3381
g12
I00
S'\xf0\xe3\xc4\xfae\xa1\x8cA'
p3382
tp3383
bsS'522'
p3384
g2
(g3
(I0
tp3385
g5
tp3386
Rp3387
(I1
(I1
tp3388
g12
I00
S'\xd8\xb6\xd5\xe0\x0b\xa4\x82A'
p3389
tp3390
bsS'1014'
p3391
g2
(g3
(I0
tp3392
g5
tp3393
Rp3394
(I1
(I1
tp3395
g12
I00
S'\x96\x17\tr\xb9\xee\x86A'
p3396
tp3397
bsS'1015'
p3398
g2
(g3
(I0
tp3399
g5
tp3400
Rp3401
(I1
(I1
tp3402
g12
I00
S'\xa8\x1e=\xadv\x9c\x89A'
p3403
tp3404
bsS'1017'
p3405
g2
(g3
(I0
tp3406
g5
tp3407
Rp3408
(I1
(I1
tp3409
g12
I00
S'\xeb/\x00\xf8\xfd\xbe\x97A'
p3410
tp3411
bsS'1011'
p3412
g2
(g3
(I0
tp3413
g5
tp3414
Rp3415
(I1
(I1
tp3416
g12
I00
S'\xc5\xe9\xf6n9\x80\xacA'
p3417
tp3418
bsS'1012'
p3419
g2
(g3
(I0
tp3420
g5
tp3421
Rp3422
(I1
(I1
tp3423
g12
I00
S'\xe8Q\xb9\x90\x87\x81\x85A'
p3424
tp3425
bsS'1013'
p3426
g2
(g3
(I0
tp3427
g5
tp3428
Rp3429
(I1
(I1
tp3430
g12
I00
S'\xe0\xb5\xf3o\x95\x85\x80A'
p3431
tp3432
bsS'1234'
p3433
g2
(g3
(I0
tp3434
g5
tp3435
Rp3436
(I1
(I1
tp3437
g12
I00
S'\xede=\xef)\xa6\x9fA'
p3438
tp3439
bsS'1235'
p3440
g2
(g3
(I0
tp3441
g5
tp3442
Rp3443
(I1
(I1
tp3444
g12
I00
S'\x02N\xa4\xd9\x05Y\x83A'
p3445
tp3446
bsS'1237'
p3447
g2
(g3
(I0
tp3448
g5
tp3449
Rp3450
(I1
(I1
tp3451
g12
I00
S'\xff\xae\xf6\xd1\xd8m\x8bA'
p3452
tp3453
bsS'1230'
p3454
g2
(g3
(I0
tp3455
g5
tp3456
Rp3457
(I1
(I1
tp3458
g12
I00
S'\xc0vV\xefY\x06zA'
p3459
tp3460
bsS'1232'
p3461
g2
(g3
(I0
tp3462
g5
tp3463
Rp3464
(I1
(I1
tp3465
g12
I00
S'\xaf\xd7w!D\xaa\x90A'
p3466
tp3467
bsS'1233'
p3468
g2
(g3
(I0
tp3469
g5
tp3470
Rp3471
(I1
(I1
tp3472
g12
I00
S'w[\xa4.\x0e\xa9\xa0A'
p3473
tp3474
bsS'1238'
p3475
g2
(g3
(I0
tp3476
g5
tp3477
Rp3478
(I1
(I1
tp3479
g12
I00
S'\x92\xac,\xc1\xa6\xd4\x85A'
p3480
tp3481
bsS'1239'
p3482
g2
(g3
(I0
tp3483
g5
tp3484
Rp3485
(I1
(I1
tp3486
g12
I00
S'\xa0\xb9\x06F\xed\x9e\x89A'
p3487
tp3488
bsS'438'
p3489
g2
(g3
(I0
tp3490
g5
tp3491
Rp3492
(I1
(I1
tp3493
g12
I00
S']1\xa2\xb5\xfc\x95\x87A'
p3494
tp3495
bsS'439'
p3496
g2
(g3
(I0
tp3497
g5
tp3498
Rp3499
(I1
(I1
tp3500
g12
I00
S'\xa2\xf6ws\xd61\x8eA'
p3501
tp3502
bsS'436'
p3503
g2
(g3
(I0
tp3504
g5
tp3505
Rp3506
(I1
(I1
tp3507
g12
I00
S'\x06\xcf\xc4]\xef6\xa6A'
p3508
tp3509
bsS'437'
p3510
g2
(g3
(I0
tp3511
g5
tp3512
Rp3513
(I1
(I1
tp3514
g12
I00
S'\x84U6\x83\xc8\x04\x9cA'
p3515
tp3516
bsS'434'
p3517
g2
(g3
(I0
tp3518
g5
tp3519
Rp3520
(I1
(I1
tp3521
g12
I00
S'\\X\x95\xcd\x1e\x01\xb1A'
p3522
tp3523
bsS'435'
p3524
g2
(g3
(I0
tp3525
g5
tp3526
Rp3527
(I1
(I1
tp3528
g12
I00
S'\xd0\x91\x04G7]\x8fA'
p3529
tp3530
bsS'432'
p3531
g2
(g3
(I0
tp3532
g5
tp3533
Rp3534
(I1
(I1
tp3535
g12
I00
S'\x9e_\xdfK\xfa\x9fTA'
p3536
tp3537
bsS'433'
p3538
g2
(g3
(I0
tp3539
g5
tp3540
Rp3541
(I1
(I1
tp3542
g12
I00
S'\x93\xc3\xf6\x1f\xa6\xa6\x9eA'
p3543
tp3544
bsS'430'
p3545
g2
(g3
(I0
tp3546
g5
tp3547
Rp3548
(I1
(I1
tp3549
g12
I00
S'\xe8\xc3\xa7bg\x04\xa3A'
p3550
tp3551
bsS'431'
p3552
g2
(g3
(I0
tp3553
g5
tp3554
Rp3555
(I1
(I1
tp3556
g12
I00
S'>\x0bW\xfd\x1a\xd9kA'
p3557
tp3558
bsS'238'
p3559
g2
(g3
(I0
tp3560
g5
tp3561
Rp3562
(I1
(I1
tp3563
g12
I00
S'\x1d\xbfx\xc8\xde\x00\x9aA'
p3564
tp3565
bsS'239'
p3566
g2
(g3
(I0
tp3567
g5
tp3568
Rp3569
(I1
(I1
tp3570
g12
I00
S'\n\x8d\xe3.m\xc3sA'
p3571
tp3572
bsS'234'
p3573
g2
(g3
(I0
tp3574
g5
tp3575
Rp3576
(I1
(I1
tp3577
g12
I00
S'&\xfai\xf5\x12\x0b\xafA'
p3578
tp3579
bsS'235'
p3580
g2
(g3
(I0
tp3581
g5
tp3582
Rp3583
(I1
(I1
tp3584
g12
I00
S'\x9cR\x13\xb3p\x08\x8fA'
p3585
tp3586
bsS'236'
p3587
g2
(g3
(I0
tp3588
g5
tp3589
Rp3590
(I1
(I1
tp3591
g12
I00
S'\x84\x89\xff\x11\xdd\xd4pA'
p3592
tp3593
bsS'237'
p3594
g2
(g3
(I0
tp3595
g5
tp3596
Rp3597
(I1
(I1
tp3598
g12
I00
S'\x998\xd0U1\x1byA'
p3599
tp3600
bsS'230'
p3601
g2
(g3
(I0
tp3602
g5
tp3603
Rp3604
(I1
(I1
tp3605
g12
I00
S'G:(B\x8c{\x85A'
p3606
tp3607
bsS'231'
p3608
g2
(g3
(I0
tp3609
g5
tp3610
Rp3611
(I1
(I1
tp3612
g12
I00
S'\x93L\xf4\x1a\x8fG\x8eA'
p3613
tp3614
bsS'232'
p3615
g2
(g3
(I0
tp3616
g5
tp3617
Rp3618
(I1
(I1
tp3619
g12
I00
S'x\x86\x93Tf8\x84A'
p3620
tp3621
bsS'233'
p3622
g2
(g3
(I0
tp3623
g5
tp3624
Rp3625
(I1
(I1
tp3626
g12
I00
S'\x91\xdb\xf9g\xcew\x96A'
p3627
tp3628
bsS'1'
p3629
g2
(g3
(I0
tp3630
g5
tp3631
Rp3632
(I1
(I1
tp3633
g12
I00
S'\xdf\xe6\xaf\xc9[\xeb\x9aA'
p3634
tp3635
bsS'146'
p3636
g2
(g3
(I0
tp3637
g5
tp3638
Rp3639
(I1
(I1
tp3640
g12
I00
S'\x8e\x9b\xbcK\x05\x88\xa8A'
p3641
tp3642
bsS'144'
p3643
g2
(g3
(I0
tp3644
g5
tp3645
Rp3646
(I1
(I1
tp3647
g12
I00
S'd-\x13\x82iJ\x91A'
p3648
tp3649
bsS'145'
p3650
g2
(g3
(I0
tp3651
g5
tp3652
Rp3653
(I1
(I1
tp3654
g12
I00
S'\xc6\xdeLZ\xa2\xae\x8cA'
p3655
tp3656
bsS'142'
p3657
g2
(g3
(I0
tp3658
g5
tp3659
Rp3660
(I1
(I1
tp3661
g12
I00
S'\xe8\x80[O\x89\x8dmA'
p3662
tp3663
bsS'143'
p3664
g2
(g3
(I0
tp3665
g5
tp3666
Rp3667
(I1
(I1
tp3668
g12
I00
S"'\xb1\x86\xb0M\xf7\x9bA"
p3669
tp3670
bsS'140'
p3671
g2
(g3
(I0
tp3672
g5
tp3673
Rp3674
(I1
(I1
tp3675
g12
I00
S'\\u\n\\P\xf7\x86A'
p3676
tp3677
bsS'141'
p3678
g2
(g3
(I0
tp3679
g5
tp3680
Rp3681
(I1
(I1
tp3682
g12
I00
S'\xbe3)\xab\x8a.\x86A'
p3683
tp3684
bsS'148'
p3685
g2
(g3
(I0
tp3686
g5
tp3687
Rp3688
(I1
(I1
tp3689
g12
I00
S'\x9a\x19\x95\x02\xa5\xf2\x89A'
p3690
tp3691
bsS'149'
p3692
g2
(g3
(I0
tp3693
g5
tp3694
Rp3695
(I1
(I1
tp3696
g12
I00
S'\xf0\x84\xd0X\x0e;\xa2A'
p3697
tp3698
bsS'1832'
p3699
g2
(g3
(I0
tp3700
g5
tp3701
Rp3702
(I1
(I1
tp3703
g12
I00
S'\x026\xb1\xe5\xdd\xf0iA'
p3704
tp3705
bsS'1833'
p3706
g2
(g3
(I0
tp3707
g5
tp3708
Rp3709
(I1
(I1
tp3710
g12
I00
S'\x026\xb1\xe5\xdd\xf0iA'
p3711
tp3712
bsS'1830'
p3713
g2
(g3
(I0
tp3714
g5
tp3715
Rp3716
(I1
(I1
tp3717
g12
I00
S'\x026\xb1\xe5\xdd\xf0iA'
p3718
tp3719
bsS'1831'
p3720
g2
(g3
(I0
tp3721
g5
tp3722
Rp3723
(I1
(I1
tp3724
g12
I00
S'\x026\xb1\xe5\xdd\xf0iA'
p3725
tp3726
bsS'1836'
p3727
g2
(g3
(I0
tp3728
g5
tp3729
Rp3730
(I1
(I1
tp3731
g12
I00
S'\x026\xb1\xe5\xdd\xf0iA'
p3732
tp3733
bsS'1837'
p3734
g2
(g3
(I0
tp3735
g5
tp3736
Rp3737
(I1
(I1
tp3738
g12
I00
S'\x026\xb1\xe5\xdd\xf0iA'
p3739
tp3740
bsS'1834'
p3741
g2
(g3
(I0
tp3742
g5
tp3743
Rp3744
(I1
(I1
tp3745
g12
I00
S'\x026\xb1\xe5\xdd\xf0iA'
p3746
tp3747
bsS'1835'
p3748
g2
(g3
(I0
tp3749
g5
tp3750
Rp3751
(I1
(I1
tp3752
g12
I00
S'\x026\xb1\xe5\xdd\xf0iA'
p3753
tp3754
bsS'1838'
p3755
g2
(g3
(I0
tp3756
g5
tp3757
Rp3758
(I1
(I1
tp3759
g12
I00
S'\x026\xb1\xe5\xdd\xf0iA'
p3760
tp3761
bsS'1839'
p3762
g2
(g3
(I0
tp3763
g5
tp3764
Rp3765
(I1
(I1
tp3766
g12
I00
S'\x026\xb1\xe5\xdd\xf0iA'
p3767
tp3768
bsS'939'
p3769
g2
(g3
(I0
tp3770
g5
tp3771
Rp3772
(I1
(I1
tp3773
g12
I00
S'\xe0\xad\xa6\xe0kI\xa0A'
p3774
tp3775
bsS'933'
p3776
g2
(g3
(I0
tp3777
g5
tp3778
Rp3779
(I1
(I1
tp3780
g12
I00
S'\x81v\xc5\xacn\x80\x96A'
p3781
tp3782
bsS'932'
p3783
g2
(g3
(I0
tp3784
g5
tp3785
Rp3786
(I1
(I1
tp3787
g12
I00
S'[\x82\x91{\x16\xa8\x93A'
p3788
tp3789
bsS'931'
p3790
g2
(g3
(I0
tp3791
g5
tp3792
Rp3793
(I1
(I1
tp3794
g12
I00
S'\xe2\x82&\xe6\xc7@`A'
p3795
tp3796
bsS'930'
p3797
g2
(g3
(I0
tp3798
g5
tp3799
Rp3800
(I1
(I1
tp3801
g12
I00
S'\x8c\x8d\t\x81G\xa0bA'
p3802
tp3803
bsS'937'
p3804
g2
(g3
(I0
tp3805
g5
tp3806
Rp3807
(I1
(I1
tp3808
g12
I00
S'v\xd4\x19T\xb6[bA'
p3809
tp3810
bsS'936'
p3811
g2
(g3
(I0
tp3812
g5
tp3813
Rp3814
(I1
(I1
tp3815
g12
I00
S'L\xae\xa1xO?zA'
p3816
tp3817
bsS'935'
p3818
g2
(g3
(I0
tp3819
g5
tp3820
Rp3821
(I1
(I1
tp3822
g12
I00
S':\x9dj\xd9\x87i\x81A'
p3823
tp3824
bsS'934'
p3825
g2
(g3
(I0
tp3826
g5
tp3827
Rp3828
(I1
(I1
tp3829
g12
I00
S'L)\xb6\xec<\x0b\x8fA'
p3830
tp3831
bsS'829'
p3832
g2
(g3
(I0
tp3833
g5
tp3834
Rp3835
(I1
(I1
tp3836
g12
I00
S'\x95\r\x98\xc5\x90(\x91A'
p3837
tp3838
bsS'828'
p3839
g2
(g3
(I0
tp3840
g5
tp3841
Rp3842
(I1
(I1
tp3843
g12
I00
S'k\x18\x8f\xad\xd7\x03\x98A'
p3844
tp3845
bsS'825'
p3846
g2
(g3
(I0
tp3847
g5
tp3848
Rp3849
(I1
(I1
tp3850
g12
I00
S'\x88po@f\xaa\x8dA'
p3851
tp3852
bsS'824'
p3853
g2
(g3
(I0
tp3854
g5
tp3855
Rp3856
(I1
(I1
tp3857
g12
I00
S'\xd4\x1c:\xdaf\x95\x93A'
p3858
tp3859
bsS'827'
p3860
g2
(g3
(I0
tp3861
g5
tp3862
Rp3863
(I1
(I1
tp3864
g12
I00
S"\x03Ap/\x11'\x9cA"
p3865
tp3866
bsS'826'
p3867
g2
(g3
(I0
tp3868
g5
tp3869
Rp3870
(I1
(I1
tp3871
g12
I00
S'Ys5S\xd1N\x97A'
p3872
tp3873
bsS'821'
p3874
g2
(g3
(I0
tp3875
g5
tp3876
Rp3877
(I1
(I1
tp3878
g12
I00
S'PU\xc7)\xb1\xa8hA'
p3879
tp3880
bsS'597'
p3881
g2
(g3
(I0
tp3882
g5
tp3883
Rp3884
(I1
(I1
tp3885
g12
I00
S'?\x0f\xc8\xf39\xb9\x93A'
p3886
tp3887
bsS'823'
p3888
g2
(g3
(I0
tp3889
g5
tp3890
Rp3891
(I1
(I1
tp3892
g12
I00
S'\x1e\x9f\xed\x82{e\x97A'
p3893
tp3894
bsS'822'
p3895
g2
(g3
(I0
tp3896
g5
tp3897
Rp3898
(I1
(I1
tp3899
g12
I00
S'\x9c\xd6\x9du\x85)\x94A'
p3900
tp3901
bsS'1482'
p3902
g2
(g3
(I0
tp3903
g5
tp3904
Rp3905
(I1
(I1
tp3906
g12
I00
S'Vf0(\xef\xed\xa7A'
p3907
tp3908
bsS'1481'
p3909
g2
(g3
(I0
tp3910
g5
tp3911
Rp3912
(I1
(I1
tp3913
g12
I00
S'<R\x02{+p\xb0A'
p3914
tp3915
bsS'1487'
p3916
g2
(g3
(I0
tp3917
g5
tp3918
Rp3919
(I1
(I1
tp3920
g12
I00
S'\xc0:\xc1M_\x8b\xacA'
p3921
tp3922
bsS'1486'
p3923
g2
(g3
(I0
tp3924
g5
tp3925
Rp3926
(I1
(I1
tp3927
g12
I00
S'[\xe9\xc1Y\xbc\x1d\xa3A'
p3928
tp3929
bsS'1485'
p3930
g2
(g3
(I0
tp3931
g5
tp3932
Rp3933
(I1
(I1
tp3934
g12
I00
S'\x90\xf8p\x88#obA'
p3935
tp3936
bsS'1484'
p3937
g2
(g3
(I0
tp3938
g5
tp3939
Rp3940
(I1
(I1
tp3941
g12
I00
S'\xe6Z*6?\xc9kA'
p3942
tp3943
bsS'1489'
p3944
g2
(g3
(I0
tp3945
g5
tp3946
Rp3947
(I1
(I1
tp3948
g12
I00
S'\x81S#\xa6\xfda\x9dA'
p3949
tp3950
bsS'1488'
p3951
g2
(g3
(I0
tp3952
g5
tp3953
Rp3954
(I1
(I1
tp3955
g12
I00
S'p\x01\x9a\x19\xae\xbbbA'
p3956
tp3957
bsS'797'
p3958
g2
(g3
(I0
tp3959
g5
tp3960
Rp3961
(I1
(I1
tp3962
g12
I00
S'\xa7\x00\xe7\xaa\xc6L\x91A'
p3963
tp3964
bsS'796'
p3965
g2
(g3
(I0
tp3966
g5
tp3967
Rp3968
(I1
(I1
tp3969
g12
I00
S'\x87A;\xa5\xcb\x02\x92A'
p3970
tp3971
bsS'795'
p3972
g2
(g3
(I0
tp3973
g5
tp3974
Rp3975
(I1
(I1
tp3976
g12
I00
S'\xcao\x84\xc1~\xb9\x91A'
p3977
tp3978
bsS'794'
p3979
g2
(g3
(I0
tp3980
g5
tp3981
Rp3982
(I1
(I1
tp3983
g12
I00
S'\xc8\x1c\xfe)\xcb\x02\x86A'
p3984
tp3985
bsS'1717'
p3986
g2
(g3
(I0
tp3987
g5
tp3988
Rp3989
(I1
(I1
tp3990
g12
I00
S'\x1a\xe6\x1e\x1ew\x0e\\A'
p3991
tp3992
bsS'792'
p3993
g2
(g3
(I0
tp3994
g5
tp3995
Rp3996
(I1
(I1
tp3997
g12
I00
S'\xc0\xae\x98\x0c\xd7z|A'
p3998
tp3999
bsS'791'
p4000
g2
(g3
(I0
tp4001
g5
tp4002
Rp4003
(I1
(I1
tp4004
g12
I00
S'\x1b\x88\xd5\xd2\xb1\xc9\x90A'
p4005
tp4006
bsS'790'
p4007
g2
(g3
(I0
tp4008
g5
tp4009
Rp4010
(I1
(I1
tp4011
g12
I00
S'\xb6\xe7\xa1\x89\xa22}A'
p4012
tp4013
bsS'1719'
p4014
g2
(g3
(I0
tp4015
g5
tp4016
Rp4017
(I1
(I1
tp4018
g12
I00
S'.\x9bh\xba\xe0\xe9\x8eA'
p4019
tp4020
bsS'1718'
p4021
g2
(g3
(I0
tp4022
g5
tp4023
Rp4024
(I1
(I1
tp4025
g12
I00
S'9\xfc3Y\xaf6[A'
p4026
tp4027
bsS'799'
p4028
g2
(g3
(I0
tp4029
g5
tp4030
Rp4031
(I1
(I1
tp4032
g12
I00
S'\xa4\x1b\x18\xdc\x95c\x96A'
p4033
tp4034
bsS'798'
p4035
g2
(g3
(I0
tp4036
g5
tp4037
Rp4038
(I1
(I1
tp4039
g12
I00
S'\x86\xe1\x8a\xcb\xe72\x8bA'
p4040
tp4041
bsS'1271'
p4042
g2
(g3
(I0
tp4043
g5
tp4044
Rp4045
(I1
(I1
tp4046
g12
I00
S'\xde\xef\xffL1\xf3\x80A'
p4047
tp4048
bsS'610'
p4049
g2
(g3
(I0
tp4050
g5
tp4051
Rp4052
(I1
(I1
tp4053
g12
I00
S'\x8fS\xf7k|v\x96A'
p4054
tp4055
bsS'1139'
p4056
g2
(g3
(I0
tp4057
g5
tp4058
Rp4059
(I1
(I1
tp4060
g12
I00
S'\x9b\xb8B\x7f\x01~\x93A'
p4061
tp4062
bsS'1138'
p4063
g2
(g3
(I0
tp4064
g5
tp4065
Rp4066
(I1
(I1
tp4067
g12
I00
S"p'\xc4I\xd2\x07}A"
p4068
tp4069
bsS'1133'
p4070
g2
(g3
(I0
tp4071
g5
tp4072
Rp4073
(I1
(I1
tp4074
g12
I00
S'N\xaa\xfc\xb1]?\xa0A'
p4075
tp4076
bsS'1132'
p4077
g2
(g3
(I0
tp4078
g5
tp4079
Rp4080
(I1
(I1
tp4081
g12
I00
S'\xeff\xd9H0`\x9aA'
p4082
tp4083
bsS'1131'
p4084
g2
(g3
(I0
tp4085
g5
tp4086
Rp4087
(I1
(I1
tp4088
g12
I00
S']\x15\x08\xb7Z\xef~A'
p4089
tp4090
bsS'1130'
p4091
g2
(g3
(I0
tp4092
g5
tp4093
Rp4094
(I1
(I1
tp4095
g12
I00
S'O\xfd/9\xb9\xf9\x89A'
p4096
tp4097
bsS'1137'
p4098
g2
(g3
(I0
tp4099
g5
tp4100
Rp4101
(I1
(I1
tp4102
g12
I00
S'\x98\x92\xd0\xd8\x1e5`A'
p4103
tp4104
bsS'1136'
p4105
g2
(g3
(I0
tp4106
g5
tp4107
Rp4108
(I1
(I1
tp4109
g12
I00
S'\x0e\xd5\x81jh\xcfrA'
p4110
tp4111
bsS'1135'
p4112
g2
(g3
(I0
tp4113
g5
tp4114
Rp4115
(I1
(I1
tp4116
g12
I00
S'\x84\x03\xa5\x95\x99\xcb\x9dA'
p4117
tp4118
bsS'1134'
p4119
g2
(g3
(I0
tp4120
g5
tp4121
Rp4122
(I1
(I1
tp4123
g12
I00
S'<\xf3\x1as\xe5\x81\x9dA'
p4124
tp4125
bsS'614'
p4126
g2
(g3
(I0
tp4127
g5
tp4128
Rp4129
(I1
(I1
tp4130
g12
I00
S'\xbb\xad\xcdW\xbf\xab\x95A'
p4131
tp4132
bsS'1277'
p4133
g2
(g3
(I0
tp4134
g5
tp4135
Rp4136
(I1
(I1
tp4137
g12
I00
S'$\x0fN\xa8\x93RzA'
p4138
tp4139
bsS'519'
p4140
g2
(g3
(I0
tp4141
g5
tp4142
Rp4143
(I1
(I1
tp4144
g12
I00
S'OC\xdb\t\xf8\xe7\x84A'
p4145
tp4146
bsS'518'
p4147
g2
(g3
(I0
tp4148
g5
tp4149
Rp4150
(I1
(I1
tp4151
g12
I00
S')\x17?\x9a\xa7S\xb0A'
p4152
tp4153
bsS'1009'
p4154
g2
(g3
(I0
tp4155
g5
tp4156
Rp4157
(I1
(I1
tp4158
g12
I00
S'\x99$FI\xbb\xdd\x9eA'
p4159
tp4160
bsS'1008'
p4161
g2
(g3
(I0
tp4162
g5
tp4163
Rp4164
(I1
(I1
tp4165
g12
I00
S'\x15j\xe17IR\x91A'
p4166
tp4167
bsS'511'
p4168
g2
(g3
(I0
tp4169
g5
tp4170
Rp4171
(I1
(I1
tp4172
g12
I00
S'),\xba/\xf7X\x83A'
p4173
tp4174
bsS'510'
p4175
g2
(g3
(I0
tp4176
g5
tp4177
Rp4178
(I1
(I1
tp4179
g12
I00
S'A\xabdt\xec\x15\x99A'
p4180
tp4181
bsS'513'
p4182
g2
(g3
(I0
tp4183
g5
tp4184
Rp4185
(I1
(I1
tp4186
g12
I00
S'\x97\xe6\xb8\x9bOYdA'
p4187
tp4188
bsS'512'
p4189
g2
(g3
(I0
tp4190
g5
tp4191
Rp4192
(I1
(I1
tp4193
g12
I00
S'o\xdb#W\x9a\x0b\x83A'
p4194
tp4195
bsS'1003'
p4196
g2
(g3
(I0
tp4197
g5
tp4198
Rp4199
(I1
(I1
tp4200
g12
I00
S'\\a\x8c\xd2\x0e\x02sA'
p4201
tp4202
bsS'1002'
p4203
g2
(g3
(I0
tp4204
g5
tp4205
Rp4206
(I1
(I1
tp4207
g12
I00
S'\xba\tH\xc7\x97)vA'
p4208
tp4209
bsS'1001'
p4210
g2
(g3
(I0
tp4211
g5
tp4212
Rp4213
(I1
(I1
tp4214
g12
I00
S'R\xdb\x88r\xdeM\x93A'
p4215
tp4216
bsS'1000'
p4217
g2
(g3
(I0
tp4218
g5
tp4219
Rp4220
(I1
(I1
tp4221
g12
I00
S'b\xbal\xc3@\xfdrA'
p4222
tp4223
bsS'1227'
p4224
g2
(g3
(I0
tp4225
g5
tp4226
Rp4227
(I1
(I1
tp4228
g12
I00
S'yjmC\xc0\xf2\x9cA'
p4229
tp4230
bsS'622'
p4231
g2
(g3
(I0
tp4232
g5
tp4233
Rp4234
(I1
(I1
tp4235
g12
I00
S'<\xa4\xb8"B\x16\x88A'
p4236
tp4237
bsS'621'
p4238
g2
(g3
(I0
tp4239
g5
tp4240
Rp4241
(I1
(I1
tp4242
g12
I00
S'\xc3\xd6?\x94s\x01pA'
p4243
tp4244
bsS'1224'
p4245
g2
(g3
(I0
tp4246
g5
tp4247
Rp4248
(I1
(I1
tp4249
g12
I00
S' G8Y\xf8\r\x86A'
p4250
tp4251
bsS'1223'
p4252
g2
(g3
(I0
tp4253
g5
tp4254
Rp4255
(I1
(I1
tp4256
g12
I00
S'\xcfa\xa8l\x90^\x99A'
p4257
tp4258
bsS'1222'
p4259
g2
(g3
(I0
tp4260
g5
tp4261
Rp4262
(I1
(I1
tp4263
g12
I00
S'\xd9\x82\xac\x0fF\xdc\xa6A'
p4264
tp4265
bsS'625'
p4266
g2
(g3
(I0
tp4267
g5
tp4268
Rp4269
(I1
(I1
tp4270
g12
I00
S'\xda\xaa*\\\xb7=vA'
p4271
tp4272
bsS'1220'
p4273
g2
(g3
(I0
tp4274
g5
tp4275
Rp4276
(I1
(I1
tp4277
g12
I00
S'\xd9D\x9e8\x0e\xe4\x90A'
p4278
tp4279
bsS'628'
p4280
g2
(g3
(I0
tp4281
g5
tp4282
Rp4283
(I1
(I1
tp4284
g12
I00
S'U*^\x91\x84\xde\x95A'
p4285
tp4286
bsS'1229'
p4287
g2
(g3
(I0
tp4288
g5
tp4289
Rp4290
(I1
(I1
tp4291
g12
I00
S'K\x17*\xec\x9df\x89A'
p4292
tp4293
bsS'1228'
p4294
g2
(g3
(I0
tp4295
g5
tp4296
Rp4297
(I1
(I1
tp4298
g12
I00
S'g\x9f\xbb\xceZ\x7f\x94A'
p4299
tp4300
bsS'2'
p4301
g2
(g3
(I0
tp4302
g5
tp4303
Rp4304
(I1
(I1
tp4305
g12
I00
S'\xcf\x8a\xf9i\x8ae\xabA'
p4306
tp4307
bsS'11'
p4308
g2
(g3
(I0
tp4309
g5
tp4310
Rp4311
(I1
(I1
tp4312
g12
I00
S'4\xc0\xd7\xf7W\x7fcA'
p4313
tp4314
bsS'10'
p4315
g2
(g3
(I0
tp4316
g5
tp4317
Rp4318
(I1
(I1
tp4319
g12
I00
S's\xdc\xa1\xa2}k\x86A'
p4320
tp4321
bsS'13'
p4322
g2
(g3
(I0
tp4323
g5
tp4324
Rp4325
(I1
(I1
tp4326
g12
I00
S'tU\xd2*\xbd\xdd\xa6A'
p4327
tp4328
bsS'12'
p4329
g2
(g3
(I0
tp4330
g5
tp4331
Rp4332
(I1
(I1
tp4333
g12
I00
S'R\xe5&\x98b\xd6\xa1A'
p4334
tp4335
bsS'15'
p4336
g2
(g3
(I0
tp4337
g5
tp4338
Rp4339
(I1
(I1
tp4340
g12
I00
S'\xca&B4\xb4\x0b\xa5A'
p4341
tp4342
bsS'14'
p4343
g2
(g3
(I0
tp4344
g5
tp4345
Rp4346
(I1
(I1
tp4347
g12
I00
S':r\x92\x9c\x18\xeb\x85A'
p4348
tp4349
bsS'17'
p4350
g2
(g3
(I0
tp4351
g5
tp4352
Rp4353
(I1
(I1
tp4354
g12
I00
S'\xdd\xfd\xddk\xc9\x07\x90A'
p4355
tp4356
bsS'16'
p4357
g2
(g3
(I0
tp4358
g5
tp4359
Rp4360
(I1
(I1
tp4361
g12
I00
S'\xb2\x9b\xba\x91\xc9U\x89A'
p4362
tp4363
bsS'19'
p4364
g2
(g3
(I0
tp4365
g5
tp4366
Rp4367
(I1
(I1
tp4368
g12
I00
S'\x8b5J}\xdd\x9c\x96A'
p4369
tp4370
bsS'18'
p4371
g2
(g3
(I0
tp4372
g5
tp4373
Rp4374
(I1
(I1
tp4375
g12
I00
S'Q\xab\x85\xa4\xae\xd0\x8cA'
p4376
tp4377
bsS'201'
p4378
g2
(g3
(I0
tp4379
g5
tp4380
Rp4381
(I1
(I1
tp4382
g12
I00
S'E\xf1\xbb\x9e\xfcu\xa6A'
p4383
tp4384
bsS'200'
p4385
g2
(g3
(I0
tp4386
g5
tp4387
Rp4388
(I1
(I1
tp4389
g12
I00
S'\xa9+4\xd3\xf0T\x9bA'
p4390
tp4391
bsS'203'
p4392
g2
(g3
(I0
tp4393
g5
tp4394
Rp4395
(I1
(I1
tp4396
g12
I00
S'\xf0@\xea>)\x14\x87A'
p4397
tp4398
bsS'202'
p4399
g2
(g3
(I0
tp4400
g5
tp4401
Rp4402
(I1
(I1
tp4403
g12
I00
S'\xb6}\xe4\xffM\xff\xacA'
p4404
tp4405
bsS'205'
p4406
g2
(g3
(I0
tp4407
g5
tp4408
Rp4409
(I1
(I1
tp4410
g12
I00
S'\x9e\x17\xe7\xa0\xcd\xfc\x95A'
p4411
tp4412
bsS'204'
p4413
g2
(g3
(I0
tp4414
g5
tp4415
Rp4416
(I1
(I1
tp4417
g12
I00
S'\xc8\x97\xb7\x96Ku\x89A'
p4418
tp4419
bsS'207'
p4420
g2
(g3
(I0
tp4421
g5
tp4422
Rp4423
(I1
(I1
tp4424
g12
I00
S'\x07Ss5~c\x94A'
p4425
tp4426
bsS'206'
p4427
g2
(g3
(I0
tp4428
g5
tp4429
Rp4430
(I1
(I1
tp4431
g12
I00
S'\x07Wu\r\x05\xf8\x9aA'
p4432
tp4433
bsS'209'
p4434
g2
(g3
(I0
tp4435
g5
tp4436
Rp4437
(I1
(I1
tp4438
g12
I00
S'\xfa=\x03g\xb3\xd9\xb0A'
p4439
tp4440
bsS'208'
p4441
g2
(g3
(I0
tp4442
g5
tp4443
Rp4444
(I1
(I1
tp4445
g12
I00
S'\xd9\xf9m\xaf5\x8deA'
p4446
tp4447
bsS'685'
p4448
g2
(g3
(I0
tp4449
g5
tp4450
Rp4451
(I1
(I1
tp4452
g12
I00
S'\x00\xff\xc5+\x1a\xd6mA'
p4453
tp4454
bsS'1572'
p4455
g2
(g3
(I0
tp4456
g5
tp4457
Rp4458
(I1
(I1
tp4459
g12
I00
S"\xe0'\xbbc\xd4\x06\x8bA"
p4460
tp4461
bsS'1571'
p4462
g2
(g3
(I0
tp4463
g5
tp4464
Rp4465
(I1
(I1
tp4466
g12
I00
S'\xb1\xc3\x10Q\xd0\x88\xa4A'
p4467
tp4468
bsS'1570'
p4469
g2
(g3
(I0
tp4470
g5
tp4471
Rp4472
(I1
(I1
tp4473
g12
I00
S'\xeak-.^\xc3jA'
p4474
tp4475
bsS'1577'
p4476
g2
(g3
(I0
tp4477
g5
tp4478
Rp4479
(I1
(I1
tp4480
g12
I00
S'\xd1B\x92n\xd7n\x8fA'
p4481
tp4482
bsS'1575'
p4483
g2
(g3
(I0
tp4484
g5
tp4485
Rp4486
(I1
(I1
tp4487
g12
I00
S'\xa4\x0eQ \xa0c\xadA'
p4488
tp4489
bsS'1574'
p4490
g2
(g3
(I0
tp4491
g5
tp4492
Rp4493
(I1
(I1
tp4494
g12
I00
S'\x0ci\x9d(Dn\xa5A'
p4495
tp4496
bsS'1829'
p4497
g2
(g3
(I0
tp4498
g5
tp4499
Rp4500
(I1
(I1
tp4501
g12
I00
S'\x026\xb1\xe5\xdd\xf0iA'
p4502
tp4503
bsS'1825'
p4504
g2
(g3
(I0
tp4505
g5
tp4506
Rp4507
(I1
(I1
tp4508
g12
I00
S'\x026\xb1\xe5\xdd\xf0iA'
p4509
tp4510
bsS'1824'
p4511
g2
(g3
(I0
tp4512
g5
tp4513
Rp4514
(I1
(I1
tp4515
g12
I00
S'\x026\xb1\xe5\xdd\xf0iA'
p4516
tp4517
bsS'1827'
p4518
g2
(g3
(I0
tp4519
g5
tp4520
Rp4521
(I1
(I1
tp4522
g12
I00
S'\x026\xb1\xe5\xdd\xf0iA'
p4523
tp4524
bsS'1826'
p4525
g2
(g3
(I0
tp4526
g5
tp4527
Rp4528
(I1
(I1
tp4529
g12
I00
S'\x026\xb1\xe5\xdd\xf0iA'
p4530
tp4531
bsS'1821'
p4532
g2
(g3
(I0
tp4533
g5
tp4534
Rp4535
(I1
(I1
tp4536
g12
I00
S'\x026\xb1\xe5\xdd\xf0iA'
p4537
tp4538
bsS'1820'
p4539
g2
(g3
(I0
tp4540
g5
tp4541
Rp4542
(I1
(I1
tp4543
g12
I00
S'\x026\xb1\xe5\xdd\xf0iA'
p4544
tp4545
bsS'1823'
p4546
g2
(g3
(I0
tp4547
g5
tp4548
Rp4549
(I1
(I1
tp4550
g12
I00
S'\x026\xb1\xe5\xdd\xf0iA'
p4551
tp4552
bsS'1822'
p4553
g2
(g3
(I0
tp4554
g5
tp4555
Rp4556
(I1
(I1
tp4557
g12
I00
S'\x026\xb1\xe5\xdd\xf0iA'
p4558
tp4559
bsS'928'
p4560
g2
(g3
(I0
tp4561
g5
tp4562
Rp4563
(I1
(I1
tp4564
g12
I00
S'\xe1\xbc9\x11+\xc1\x95A'
p4565
tp4566
bsS'929'
p4567
g2
(g3
(I0
tp4568
g5
tp4569
Rp4570
(I1
(I1
tp4571
g12
I00
S'9\xberVF\xaa\x8bA'
p4572
tp4573
bsS'921'
p4574
g2
(g3
(I0
tp4575
g5
tp4576
Rp4577
(I1
(I1
tp4578
g12
I00
S'B`\x12\xda\xd6QxA'
p4579
tp4580
bsS'922'
p4581
g2
(g3
(I0
tp4582
g5
tp4583
Rp4584
(I1
(I1
tp4585
g12
I00
S'R\xb0\xfbm\x1d\xdb\xa2A'
p4586
tp4587
bsS'923'
p4588
g2
(g3
(I0
tp4589
g5
tp4590
Rp4591
(I1
(I1
tp4592
g12
I00
S'\xb1\xc9+\x03\xea\x04\x92A'
p4593
tp4594
bsS'924'
p4595
g2
(g3
(I0
tp4596
g5
tp4597
Rp4598
(I1
(I1
tp4599
g12
I00
S'\x0b\xc7\x14-\x19\xbd\x9bA'
p4600
tp4601
bsS'925'
p4602
g2
(g3
(I0
tp4603
g5
tp4604
Rp4605
(I1
(I1
tp4606
g12
I00
S'uX}\xbee#xA'
p4607
tp4608
bsS'926'
p4609
g2
(g3
(I0
tp4610
g5
tp4611
Rp4612
(I1
(I1
tp4613
g12
I00
S'\x11zkrQ\xccfA'
p4614
tp4615
bsS'927'
p4616
g2
(g3
(I0
tp4617
g5
tp4618
Rp4619
(I1
(I1
tp4620
g12
I00
S'\x1b\x7f\xea\xe7\xba\xe4\x96A'
p4621
tp4622
bsS'832'
p4623
g2
(g3
(I0
tp4624
g5
tp4625
Rp4626
(I1
(I1
tp4627
g12
I00
S'lK=B\xf2c\xabA'
p4628
tp4629
bsS'833'
p4630
g2
(g3
(I0
tp4631
g5
tp4632
Rp4633
(I1
(I1
tp4634
g12
I00
S'\xd9T\x87-\xe1\xccVA'
p4635
tp4636
bsS'830'
p4637
g2
(g3
(I0
tp4638
g5
tp4639
Rp4640
(I1
(I1
tp4641
g12
I00
S'\x9a\xd1\xaa\xf6mu\x88A'
p4642
tp4643
bsS'831'
p4644
g2
(g3
(I0
tp4645
g5
tp4646
Rp4647
(I1
(I1
tp4648
g12
I00
S"\xe6\x88\xad'\xca$\x89A"
p4649
tp4650
bsS'836'
p4651
g2
(g3
(I0
tp4652
g5
tp4653
Rp4654
(I1
(I1
tp4655
g12
I00
S'kZ\xea\xa2-\x8d\xa5A'
p4656
tp4657
bsS'837'
p4658
g2
(g3
(I0
tp4659
g5
tp4660
Rp4661
(I1
(I1
tp4662
g12
I00
S'\rL\xff\xe4\xc7\x93\x9eA'
p4663
tp4664
bsS'834'
p4665
g2
(g3
(I0
tp4666
g5
tp4667
Rp4668
(I1
(I1
tp4669
g12
I00
S'_?\xd5\x0b\xa1\xc4\x9aA'
p4670
tp4671
bsS'835'
p4672
g2
(g3
(I0
tp4673
g5
tp4674
Rp4675
(I1
(I1
tp4676
g12
I00
S'\xa4\xfd\xbbjO\xd1\xacA'
p4677
tp4678
bsS'838'
p4679
g2
(g3
(I0
tp4680
g5
tp4681
Rp4682
(I1
(I1
tp4683
g12
I00
S'\x80\x93y\x06F\x10\x98A'
p4684
tp4685
bsS'3'
p4686
g2
(g3
(I0
tp4687
g5
tp4688
Rp4689
(I1
(I1
tp4690
g12
I00
S'\x90\x01\xd0\xa1o\xceSA'
p4691
tp4692
bsS'784'
p4693
g2
(g3
(I0
tp4694
g5
tp4695
Rp4696
(I1
(I1
tp4697
g12
I00
S'\xd6E\xdc(<`\x8dA'
p4698
tp4699
bsS'785'
p4700
g2
(g3
(I0
tp4701
g5
tp4702
Rp4703
(I1
(I1
tp4704
g12
I00
S'h\x082\x08\xc2\xdf\x9eA'
p4705
tp4706
bsS'786'
p4707
g2
(g3
(I0
tp4708
g5
tp4709
Rp4710
(I1
(I1
tp4711
g12
I00
S'\x7f\xc6l\xd5\x93\x93\x93A'
p4712
tp4713
bsS'780'
p4714
g2
(g3
(I0
tp4715
g5
tp4716
Rp4717
(I1
(I1
tp4718
g12
I00
S'\x99\xc8\x8d\xb3\x10\x03\x90A'
p4719
tp4720
bsS'781'
p4721
g2
(g3
(I0
tp4722
g5
tp4723
Rp4724
(I1
(I1
tp4725
g12
I00
S'\x99\xd8\xb2\xeaS\x9e\x93A'
p4726
tp4727
bsS'1728'
p4728
g2
(g3
(I0
tp4729
g5
tp4730
Rp4731
(I1
(I1
tp4732
g12
I00
S'\x9d\xb6\x01\xcd\r\xa1\\A'
p4733
tp4734
bsS'1729'
p4735
g2
(g3
(I0
tp4736
g5
tp4737
Rp4738
(I1
(I1
tp4739
g12
I00
S'n\xe1Ds\x1d\xcdBA'
p4740
tp4741
bsS'1726'
p4742
g2
(g3
(I0
tp4743
g5
tp4744
Rp4745
(I1
(I1
tp4746
g12
I00
S'\xa4\xa4\xc4\xda\xac\xefVA'
p4747
tp4748
bsS'1727'
p4749
g2
(g3
(I0
tp4750
g5
tp4751
Rp4752
(I1
(I1
tp4753
g12
I00
S'\xe4\x0cH\x88?\xd2`A'
p4754
tp4755
bsS'1724'
p4756
g2
(g3
(I0
tp4757
g5
tp4758
Rp4759
(I1
(I1
tp4760
g12
I00
S'Cp2\xcfga\xadA'
p4761
tp4762
bsS'1725'
p4763
g2
(g3
(I0
tp4764
g5
tp4765
Rp4766
(I1
(I1
tp4767
g12
I00
S'\xe0\xe5\xcd(\xc5\x1a\x7fA'
p4768
tp4769
bsS'1722'
p4770
g2
(g3
(I0
tp4771
g5
tp4772
Rp4773
(I1
(I1
tp4774
g12
I00
S'\xf6#\xd1l\x86\xa5wA'
p4775
tp4776
bsS'1723'
p4777
g2
(g3
(I0
tp4778
g5
tp4779
Rp4780
(I1
(I1
tp4781
g12
I00
S"'\xact\xaa\xf7\x06eA"
p4782
tp4783
bsS'1720'
p4784
g2
(g3
(I0
tp4785
g5
tp4786
Rp4787
(I1
(I1
tp4788
g12
I00
S'\x1f\xe4\x1a/\x86h\xa3A'
p4789
tp4790
bsS'60'
p4791
g2
(g3
(I0
tp4792
g5
tp4793
Rp4794
(I1
(I1
tp4795
g12
I00
S'\xecj\x9a\xeb2\xfa\xabA'
p4796
tp4797
bsS'61'
p4798
g2
(g3
(I0
tp4799
g5
tp4800
Rp4801
(I1
(I1
tp4802
g12
I00
S'\\x\xf0kP\xcb\xacA'
p4803
tp4804
bsS'62'
p4805
g2
(g3
(I0
tp4806
g5
tp4807
Rp4808
(I1
(I1
tp4809
g12
I00
S'=t\x00\x89\xe5\x9d\x98A'
p4810
tp4811
bsS'63'
p4812
g2
(g3
(I0
tp4813
g5
tp4814
Rp4815
(I1
(I1
tp4816
g12
I00
S'K\x19w\xd9\xe2-\x9cA'
p4817
tp4818
bsS'64'
p4819
g2
(g3
(I0
tp4820
g5
tp4821
Rp4822
(I1
(I1
tp4823
g12
I00
S'h\x1f\t\xcd\xd9v\xa0A'
p4824
tp4825
bsS'65'
p4826
g2
(g3
(I0
tp4827
g5
tp4828
Rp4829
(I1
(I1
tp4830
g12
I00
S'\xef\x9f\xc3\xbbt\xd8\x98A'
p4831
tp4832
bsS'66'
p4833
g2
(g3
(I0
tp4834
g5
tp4835
Rp4836
(I1
(I1
tp4837
g12
I00
S'w\x8b~S\x0f4\x88A'
p4838
tp4839
bsS'67'
p4840
g2
(g3
(I0
tp4841
g5
tp4842
Rp4843
(I1
(I1
tp4844
g12
I00
S'4\xcc3\xe9\x899\x86A'
p4845
tp4846
bsS'68'
p4847
g2
(g3
(I0
tp4848
g5
tp4849
Rp4850
(I1
(I1
tp4851
g12
I00
S'J\x00\\\x1d\x02\xef\x81A'
p4852
tp4853
bsS'69'
p4854
g2
(g3
(I0
tp4855
g5
tp4856
Rp4857
(I1
(I1
tp4858
g12
I00
S'\xcea3_\xccR\x92A'
p4859
tp4860
bsS'1371'
p4861
g2
(g3
(I0
tp4862
g5
tp4863
Rp4864
(I1
(I1
tp4865
g12
I00
S'@\x1a\xd4\x97"\xb2iA'
p4866
tp4867
bsS'1588'
p4868
g2
(g3
(I0
tp4869
g5
tp4870
Rp4871
(I1
(I1
tp4872
g12
I00
S'\xf4G\x1b<\xec\xce\xa1A'
p4873
tp4874
bsS'1589'
p4875
g2
(g3
(I0
tp4876
g5
tp4877
Rp4878
(I1
(I1
tp4879
g12
I00
S')u\xb8i\xa1\xb5\x97A'
p4880
tp4881
bsS'1370'
p4882
g2
(g3
(I0
tp4883
g5
tp4884
Rp4885
(I1
(I1
tp4886
g12
I00
S'[@&\xe6/\xe2\x95A'
p4887
tp4888
bsS'1582'
p4889
g2
(g3
(I0
tp4890
g5
tp4891
Rp4892
(I1
(I1
tp4893
g12
I00
S'\xb5\x96\n,#\xeb\x95A'
p4894
tp4895
bsS'1583'
p4896
g2
(g3
(I0
tp4897
g5
tp4898
Rp4899
(I1
(I1
tp4900
g12
I00
S'\xbdR|HIhZA'
p4901
tp4902
bsS'1580'
p4903
g2
(g3
(I0
tp4904
g5
tp4905
Rp4906
(I1
(I1
tp4907
g12
I00
S'\xafE\xf6\xa9\x9f\xcc\x99A'
p4908
tp4909
bsS'1581'
p4910
g2
(g3
(I0
tp4911
g5
tp4912
Rp4913
(I1
(I1
tp4914
g12
I00
S'\xba\x02\xf4\x87\xd9\x18\x84A'
p4915
tp4916
bsS'1586'
p4917
g2
(g3
(I0
tp4918
g5
tp4919
Rp4920
(I1
(I1
tp4921
g12
I00
S'q\xfa\xc5\x00\x8c\xdc\x9aA'
p4922
tp4923
bsS'405'
p4924
g2
(g3
(I0
tp4925
g5
tp4926
Rp4927
(I1
(I1
tp4928
g12
I00
S'\xd8\x80\xa5d\x99\x17lA'
p4929
tp4930
bsS'1584'
p4931
g2
(g3
(I0
tp4932
g5
tp4933
Rp4934
(I1
(I1
tp4935
g12
I00
S'.\x99 \x83\xb9=\x93A'
p4936
tp4937
bsS'1585'
p4938
g2
(g3
(I0
tp4939
g5
tp4940
Rp4941
(I1
(I1
tp4942
g12
I00
S'\xc1\xefE\xb1,!\x95A'
p4943
tp4944
bsS'1038'
p4945
g2
(g3
(I0
tp4946
g5
tp4947
Rp4948
(I1
(I1
tp4949
g12
I00
S'Y\x90\xb72\x16\x1f\x98A'
p4950
tp4951
bsS'404'
p4952
g2
(g3
(I0
tp4953
g5
tp4954
Rp4955
(I1
(I1
tp4956
g12
I00
S"\x84\xab\x85#'\xb1\x97A"
p4957
tp4958
bsS'508'
p4959
g2
(g3
(I0
tp4960
g5
tp4961
Rp4962
(I1
(I1
tp4963
g12
I00
S'\x12\xe7Q$\xa6\xb0\x8fA'
p4964
tp4965
bsS'509'
p4966
g2
(g3
(I0
tp4967
g5
tp4968
Rp4969
(I1
(I1
tp4970
g12
I00
S'.\xea\xe4PJxbA'
p4971
tp4972
bsS'1032'
p4973
g2
(g3
(I0
tp4974
g5
tp4975
Rp4976
(I1
(I1
tp4977
g12
I00
S'&\x19v\xe6H\x98\x8aA'
p4978
tp4979
bsS'403'
p4980
g2
(g3
(I0
tp4981
g5
tp4982
Rp4983
(I1
(I1
tp4984
g12
I00
S'\x07\xde\xec\xb7\\\xf3eA'
p4985
tp4986
bsS'504'
p4987
g2
(g3
(I0
tp4988
g5
tp4989
Rp4990
(I1
(I1
tp4991
g12
I00
S'Hvc#\x82~aA'
p4992
tp4993
bsS'505'
p4994
g2
(g3
(I0
tp4995
g5
tp4996
Rp4997
(I1
(I1
tp4998
g12
I00
S'\xd2\x92\xa4\x91M\xfd\x88A'
p4999
tp5000
bsS'502'
p5001
g2
(g3
(I0
tp5002
g5
tp5003
Rp5004
(I1
(I1
tp5005
g12
I00
S'\xbe\x0eWV\xf8\xf9\x98A'
p5006
tp5007
bsS'1037'
p5008
g2
(g3
(I0
tp5009
g5
tp5010
Rp5011
(I1
(I1
tp5012
g12
I00
S'\x0c\x08\x10R\xb5\x92\xa5A'
p5013
tp5014
bsS'500'
p5015
g2
(g3
(I0
tp5016
g5
tp5017
Rp5018
(I1
(I1
tp5019
g12
I00
S'\xbd\x90\xa2\x1d\x14\x1a\xa4A'
p5020
tp5021
bsS'501'
p5022
g2
(g3
(I0
tp5023
g5
tp5024
Rp5025
(I1
(I1
tp5026
g12
I00
S'BQ\xe2j\xb6 lA'
p5027
tp5028
bsS'630'
p5029
g2
(g3
(I0
tp5030
g5
tp5031
Rp5032
(I1
(I1
tp5033
g12
I00
S'\xc2\xbf\xf0_>\xce\x8dA'
p5034
tp5035
bsS'631'
p5036
g2
(g3
(I0
tp5037
g5
tp5038
Rp5039
(I1
(I1
tp5040
g12
I00
S'\x90\x91\x88\xeb[(\x90A'
p5041
tp5042
bsS'632'
p5043
g2
(g3
(I0
tp5044
g5
tp5045
Rp5046
(I1
(I1
tp5047
g12
I00
S'5\xed\xb7\xd2\xbd\xa5_A'
p5048
tp5049
bsS'1211'
p5050
g2
(g3
(I0
tp5051
g5
tp5052
Rp5053
(I1
(I1
tp5054
g12
I00
S'\xfb\x8d\xc93&\x00\x93A'
p5055
tp5056
bsS'1216'
p5057
g2
(g3
(I0
tp5058
g5
tp5059
Rp5060
(I1
(I1
tp5061
g12
I00
S'\x86\x8b\xaa,]]\x87A'
p5062
tp5063
bsS'401'
p5064
g2
(g3
(I0
tp5065
g5
tp5066
Rp5067
(I1
(I1
tp5068
g12
I00
S'\xd8\x8f\xc0\n\xe5\xbd\x8bA'
p5069
tp5070
bsS'636'
p5071
g2
(g3
(I0
tp5072
g5
tp5073
Rp5074
(I1
(I1
tp5075
g12
I00
S')c\xa3\xf7M\x18\x8cA'
p5076
tp5077
bsS'637'
p5078
g2
(g3
(I0
tp5079
g5
tp5080
Rp5081
(I1
(I1
tp5082
g12
I00
S'\x95n.\xc2\x85\xf8\xadA'
p5083
tp5084
bsS'638'
p5085
g2
(g3
(I0
tp5086
g5
tp5087
Rp5088
(I1
(I1
tp5089
g12
I00
S'i\xe5\xe6\xc3\xb8^\x95A'
p5090
tp5091
bsS'639'
p5092
g2
(g3
(I0
tp5093
g5
tp5094
Rp5095
(I1
(I1
tp5096
g12
I00
S'\x84"\xd9\xcf7$\x9cA'
p5097
tp5098
bsS'1218'
p5099
g2
(g3
(I0
tp5100
g5
tp5101
Rp5102
(I1
(I1
tp5103
g12
I00
S'\x17\xa6\x86M\x12\xd5\x89A'
p5104
tp5105
bsS'1219'
p5106
g2
(g3
(I0
tp5107
g5
tp5108
Rp5109
(I1
(I1
tp5110
g12
I00
S'R2\xc7&\xb2\xef[A'
p5111
tp5112
bsS'782'
p5113
g2
(g3
(I0
tp5114
g5
tp5115
Rp5116
(I1
(I1
tp5117
g12
I00
S'\x99\x90\x99\xb4\x10\x04\x96A'
p5118
tp5119
bsS'783'
p5120
g2
(g3
(I0
tp5121
g5
tp5122
Rp5123
(I1
(I1
tp5124
g12
I00
S'O\x15\x8fR\x90,\x98A'
p5125
tp5126
bsS'1106'
p5127
g2
(g3
(I0
tp5128
g5
tp5129
Rp5130
(I1
(I1
tp5131
g12
I00
S'\xe1\xf0\x01\xe7\xebt\x96A'
p5132
tp5133
bsS'1455'
p5134
g2
(g3
(I0
tp5135
g5
tp5136
Rp5137
(I1
(I1
tp5138
g12
I00
S'|\x8cN$\xb9\xc9\x9fA'
p5139
tp5140
bsS'1456'
p5141
g2
(g3
(I0
tp5142
g5
tp5143
Rp5144
(I1
(I1
tp5145
g12
I00
S'S\n\xaf\xad\xc9\xe7\x8bA'
p5146
tp5147
bsS'1105'
p5148
g2
(g3
(I0
tp5149
g5
tp5150
Rp5151
(I1
(I1
tp5152
g12
I00
S'Z\n\xe1^\x8c\xc6qA'
p5153
tp5154
bsS'1450'
p5155
g2
(g3
(I0
tp5156
g5
tp5157
Rp5158
(I1
(I1
tp5159
g12
I00
S'\xcfZ]\xb6ck\xafA'
p5160
tp5161
bsS'1103'
p5162
g2
(g3
(I0
tp5163
g5
tp5164
Rp5165
(I1
(I1
tp5166
g12
I00
S'\x0bD\xfetQ\x03\x9dA'
p5167
tp5168
bsS'1452'
p5169
g2
(g3
(I0
tp5170
g5
tp5171
Rp5172
(I1
(I1
tp5173
g12
I00
S'h\xecY\xf5\xdf/\xa4A'
p5174
tp5175
bsS'1453'
p5176
g2
(g3
(I0
tp5177
g5
tp5178
Rp5179
(I1
(I1
tp5180
g12
I00
S'\x94\xcd\x954<\x03\x95A'
p5181
tp5182
bsS'1458'
p5183
g2
(g3
(I0
tp5184
g5
tp5185
Rp5186
(I1
(I1
tp5187
g12
I00
S'\x83\xa0k\xab\xfafwA'
p5188
tp5189
bsS'1459'
p5190
g2
(g3
(I0
tp5191
g5
tp5192
Rp5193
(I1
(I1
tp5194
g12
I00
S'\xb9\xaa\x80r\xddT\xa2A'
p5195
tp5196
bsS'1108'
p5197
g2
(g3
(I0
tp5198
g5
tp5199
Rp5200
(I1
(I1
tp5201
g12
I00
S'!\x15u\x81\x9c\x1e\x90A'
p5202
tp5203
bsS'1109'
p5204
g2
(g3
(I0
tp5205
g5
tp5206
Rp5207
(I1
(I1
tp5208
g12
I00
S'\x13\xa2\xae\t\xa1\xc3~A'
p5209
tp5210
bsS'788'
p5211
g2
(g3
(I0
tp5212
g5
tp5213
Rp5214
(I1
(I1
tp5215
g12
I00
S'o^\x01\x12\xc8R\xa7A'
p5216
tp5217
bsS'789'
p5218
g2
(g3
(I0
tp5219
g5
tp5220
Rp5221
(I1
(I1
tp5222
g12
I00
S'\xea\xb7\xc1P\xff^\xa0A'
p5223
tp5224
bsS'216'
p5225
g2
(g3
(I0
tp5226
g5
tp5227
Rp5228
(I1
(I1
tp5229
g12
I00
S'g\xc8\x1d\x94\x84>\x93A'
p5230
tp5231
bsS'217'
p5232
g2
(g3
(I0
tp5233
g5
tp5234
Rp5235
(I1
(I1
tp5236
g12
I00
S'\xd9\x94\\\xbc(\x1f\x84A'
p5237
tp5238
bsS'214'
p5239
g2
(g3
(I0
tp5240
g5
tp5241
Rp5242
(I1
(I1
tp5243
g12
I00
S'5\x99\xd1\x9cY6^A'
p5244
tp5245
bsS'215'
p5246
g2
(g3
(I0
tp5247
g5
tp5248
Rp5249
(I1
(I1
tp5250
g12
I00
S'\xf9\xe2\xe6\x8er\x88\x99A'
p5251
tp5252
bsS'212'
p5253
g2
(g3
(I0
tp5254
g5
tp5255
Rp5256
(I1
(I1
tp5257
g12
I00
S'\t\xce\xf3:\x80\x96\x95A'
p5258
tp5259
bsS'213'
p5260
g2
(g3
(I0
tp5261
g5
tp5262
Rp5263
(I1
(I1
tp5264
g12
I00
S'\xdb\xd3q\xb2\xb3\x92\x94A'
p5265
tp5266
bsS'210'
p5267
g2
(g3
(I0
tp5268
g5
tp5269
Rp5270
(I1
(I1
tp5271
g12
I00
S'6\x86_q\t\xee\x8cA'
p5272
tp5273
bsS'211'
p5274
g2
(g3
(I0
tp5275
g5
tp5276
Rp5277
(I1
(I1
tp5278
g12
I00
S'74\x9e\xb8^\x95rA'
p5279
tp5280
bsS'218'
p5281
g2
(g3
(I0
tp5282
g5
tp5283
Rp5284
(I1
(I1
tp5285
g12
I00
S'*.\xb9\x88"\x1esA'
p5286
tp5287
bsS'219'
p5288
g2
(g3
(I0
tp5289
g5
tp5290
Rp5291
(I1
(I1
tp5292
g12
I00
S'\xfa\x93@\xe0\xc5\x83\xa6A'
p5293
tp5294
bsS'462'
p5295
g2
(g3
(I0
tp5296
g5
tp5297
Rp5298
(I1
(I1
tp5299
g12
I00
S'T?\x12r\x12\xfb\xa6A'
p5300
tp5301
bsS'4'
p5302
g2
(g3
(I0
tp5303
g5
tp5304
Rp5305
(I1
(I1
tp5306
g12
I00
S'@\xd1\xdd\xfe\xa4\x14\x88A'
p5307
tp5308
bsS'1858'
p5309
g2
(g3
(I0
tp5310
g5
tp5311
Rp5312
(I1
(I1
tp5313
g12
I00
S'\x026\xb1\xe5\xdd\xf0iA'
p5314
tp5315
bsS'1859'
p5316
g2
(g3
(I0
tp5317
g5
tp5318
Rp5319
(I1
(I1
tp5320
g12
I00
S'\x026\xb1\xe5\xdd\xf0iA'
p5321
tp5322
bsS'1850'
p5323
g2
(g3
(I0
tp5324
g5
tp5325
Rp5326
(I1
(I1
tp5327
g12
I00
S'\x026\xb1\xe5\xdd\xf0iA'
p5328
tp5329
bsS'1851'
p5330
g2
(g3
(I0
tp5331
g5
tp5332
Rp5333
(I1
(I1
tp5334
g12
I00
S'\x026\xb1\xe5\xdd\xf0iA'
p5335
tp5336
bsS'1853'
p5337
g2
(g3
(I0
tp5338
g5
tp5339
Rp5340
(I1
(I1
tp5341
g12
I00
S'\x026\xb1\xe5\xdd\xf0iA'
p5342
tp5343
bsS'1854'
p5344
g2
(g3
(I0
tp5345
g5
tp5346
Rp5347
(I1
(I1
tp5348
g12
I00
S'\x026\xb1\xe5\xdd\xf0iA'
p5349
tp5350
bsS'1855'
p5351
g2
(g3
(I0
tp5352
g5
tp5353
Rp5354
(I1
(I1
tp5355
g12
I00
S'\x026\xb1\xe5\xdd\xf0iA'
p5356
tp5357
bsS'1856'
p5358
g2
(g3
(I0
tp5359
g5
tp5360
Rp5361
(I1
(I1
tp5362
g12
I00
S'\x026\xb1\xe5\xdd\xf0iA'
p5363
tp5364
bsS'1857'
p5365
g2
(g3
(I0
tp5366
g5
tp5367
Rp5368
(I1
(I1
tp5369
g12
I00
S'\x026\xb1\xe5\xdd\xf0iA'
p5370
tp5371
bsS'919'
p5372
g2
(g3
(I0
tp5373
g5
tp5374
Rp5375
(I1
(I1
tp5376
g12
I00
S'\x1eN\xffn\x8du\xa6A'
p5377
tp5378
bsS'918'
p5379
g2
(g3
(I0
tp5380
g5
tp5381
Rp5382
(I1
(I1
tp5383
g12
I00
S'X\x06\x8dN\xf3(\x90A'
p5384
tp5385
bsS'915'
p5386
g2
(g3
(I0
tp5387
g5
tp5388
Rp5389
(I1
(I1
tp5390
g12
I00
S'\xc7\xd9\x80\xb0\xf1\xc6\x93A'
p5391
tp5392
bsS'914'
p5393
g2
(g3
(I0
tp5394
g5
tp5395
Rp5396
(I1
(I1
tp5397
g12
I00
S'b\x04<\x1bE\x85yA'
p5398
tp5399
bsS'917'
p5400
g2
(g3
(I0
tp5401
g5
tp5402
Rp5403
(I1
(I1
tp5404
g12
I00
S'\xa9\xf80%T\x9a\x93A'
p5405
tp5406
bsS'916'
p5407
g2
(g3
(I0
tp5408
g5
tp5409
Rp5410
(I1
(I1
tp5411
g12
I00
S'xP\xeb\xbb\xbbl\x8dA'
p5412
tp5413
bsS'911'
p5414
g2
(g3
(I0
tp5415
g5
tp5416
Rp5417
(I1
(I1
tp5418
g12
I00
S'\xadD8y\x1cn|A'
p5419
tp5420
bsS'910'
p5421
g2
(g3
(I0
tp5422
g5
tp5423
Rp5424
(I1
(I1
tp5425
g12
I00
S'\x07u\x1c\xa0a\xb8\x98A'
p5426
tp5427
bsS'913'
p5428
g2
(g3
(I0
tp5429
g5
tp5430
Rp5431
(I1
(I1
tp5432
g12
I00
S'B\x00\xb7\xf9O\xe2\x9bA'
p5433
tp5434
bsS'912'
p5435
g2
(g3
(I0
tp5436
g5
tp5437
Rp5438
(I1
(I1
tp5439
g12
I00
S'\x9c,-R\xaa\xd1\x90A'
p5440
tp5441
bsS'1424'
p5442
g2
(g3
(I0
tp5443
g5
tp5444
Rp5445
(I1
(I1
tp5446
g12
I00
S'\xb1U\xdb\xa2ALKA'
p5447
tp5448
bsS'847'
p5449
g2
(g3
(I0
tp5450
g5
tp5451
Rp5452
(I1
(I1
tp5453
g12
I00
S'"\xb3\x92h\xb1\x1axA'
p5454
tp5455
bsS'846'
p5456
g2
(g3
(I0
tp5457
g5
tp5458
Rp5459
(I1
(I1
tp5460
g12
I00
S'\x90\xb7/\xc7\xfc@\x8bA'
p5461
tp5462
bsS'845'
p5463
g2
(g3
(I0
tp5464
g5
tp5465
Rp5466
(I1
(I1
tp5467
g12
I00
S'\x8b\xc2\xed\x14\xd5\xb2\xa1A'
p5468
tp5469
bsS'844'
p5470
g2
(g3
(I0
tp5471
g5
tp5472
Rp5473
(I1
(I1
tp5474
g12
I00
S'\x8f%\x9a\xc1\x8d\x96\x9cA'
p5475
tp5476
bsS'843'
p5477
g2
(g3
(I0
tp5478
g5
tp5479
Rp5480
(I1
(I1
tp5481
g12
I00
S'\x168\x93\x10\xfe\x93\xa1A'
p5482
tp5483
bsS'842'
p5484
g2
(g3
(I0
tp5485
g5
tp5486
Rp5487
(I1
(I1
tp5488
g12
I00
S'noUuy\xa1sA'
p5489
tp5490
bsS'841'
p5491
g2
(g3
(I0
tp5492
g5
tp5493
Rp5494
(I1
(I1
tp5495
g12
I00
S'6\\I\xab\xdb\xf2eA'
p5496
tp5497
bsS'840'
p5498
g2
(g3
(I0
tp5499
g5
tp5500
Rp5501
(I1
(I1
tp5502
g12
I00
S'\x14B\x16;\x08\xc6\x96A'
p5503
tp5504
bsS'849'
p5505
g2
(g3
(I0
tp5506
g5
tp5507
Rp5508
(I1
(I1
tp5509
g12
I00
S':\xaf\x0e\x8cT\xc3\xa3A'
p5510
tp5511
bsS'848'
p5512
g2
(g3
(I0
tp5513
g5
tp5514
Rp5515
(I1
(I1
tp5516
g12
I00
S'F\xab\xb2P~\x80\xafA'
p5517
tp5518
bsS'1587'
p5519
g2
(g3
(I0
tp5520
g5
tp5521
Rp5522
(I1
(I1
tp5523
g12
I00
S'&Nfw\x95\x95\xa2A'
p5524
tp5525
bsS'1739'
p5526
g2
(g3
(I0
tp5527
g5
tp5528
Rp5529
(I1
(I1
tp5530
g12
I00
S'i\xac\x02{X^\xa5A'
p5531
tp5532
bsS'1738'
p5533
g2
(g3
(I0
tp5534
g5
tp5535
Rp5536
(I1
(I1
tp5537
g12
I00
S'Fu\xc6\xf7\xd3\x86\xa9A'
p5538
tp5539
bsS'1731'
p5540
g2
(g3
(I0
tp5541
g5
tp5542
Rp5543
(I1
(I1
tp5544
g12
I00
S"\x8b\xdc\xdd\xd7'\x16\xa1A"
p5545
tp5546
bsS'1730'
p5547
g2
(g3
(I0
tp5548
g5
tp5549
Rp5550
(I1
(I1
tp5551
g12
I00
S'wg\xb6\xc2\x04\xfe\xa5A'
p5552
tp5553
bsS'1733'
p5554
g2
(g3
(I0
tp5555
g5
tp5556
Rp5557
(I1
(I1
tp5558
g12
I00
S'\xf4M\x1fP\x16\x96\xacA'
p5559
tp5560
bsS'1732'
p5561
g2
(g3
(I0
tp5562
g5
tp5563
Rp5564
(I1
(I1
tp5565
g12
I00
S'l`\xa3\xfbZ=\xa9A'
p5566
tp5567
bsS'662'
p5568
g2
(g3
(I0
tp5569
g5
tp5570
Rp5571
(I1
(I1
tp5572
g12
I00
S'\xd2\xa0\x06\xab\xef\xac\xb0A'
p5573
tp5574
bsS'1734'
p5575
g2
(g3
(I0
tp5576
g5
tp5577
Rp5578
(I1
(I1
tp5579
g12
I00
S'p\n\x06|\xf3\x1ciA'
p5580
tp5581
bsS'1737'
p5582
g2
(g3
(I0
tp5583
g5
tp5584
Rp5585
(I1
(I1
tp5586
g12
I00
S'\x05\x17\xd8\x18\xb53\xa2A'
p5587
tp5588
bsS'1736'
p5589
g2
(g3
(I0
tp5590
g5
tp5591
Rp5592
(I1
(I1
tp5593
g12
I00
S'\xb4\x96\xf7@\x96\xac\x86A'
p5594
tp5595
bsS'1039'
p5596
g2
(g3
(I0
tp5597
g5
tp5598
Rp5599
(I1
(I1
tp5600
g12
I00
S'\xb9\xd2\xe5\xd5ZhjA'
p5601
tp5602
bsS'753'
p5603
g2
(g3
(I0
tp5604
g5
tp5605
Rp5606
(I1
(I1
tp5607
g12
I00
S'x\x02N\xe4\xe7\x80\x80A'
p5608
tp5609
bsS'752'
p5610
g2
(g3
(I0
tp5611
g5
tp5612
Rp5613
(I1
(I1
tp5614
g12
I00
S'\xc1@\xd9\xc4A\xbc\x9fA'
p5615
tp5616
bsS'751'
p5617
g2
(g3
(I0
tp5618
g5
tp5619
Rp5620
(I1
(I1
tp5621
g12
I00
S'Kn\n\xe3\x87t\x9bA'
p5622
tp5623
bsS'750'
p5624
g2
(g3
(I0
tp5625
g5
tp5626
Rp5627
(I1
(I1
tp5628
g12
I00
S'h\x90|\xe33\xf8\x84A'
p5629
tp5630
bsS'757'
p5631
g2
(g3
(I0
tp5632
g5
tp5633
Rp5634
(I1
(I1
tp5635
g12
I00
S'\xdf\x8c\xbf;}\xd9\x9bA'
p5636
tp5637
bsS'755'
p5638
g2
(g3
(I0
tp5639
g5
tp5640
Rp5641
(I1
(I1
tp5642
g12
I00
S'\x0f\xfc\xbbkid\x96A'
p5643
tp5644
bsS'754'
p5645
g2
(g3
(I0
tp5646
g5
tp5647
Rp5648
(I1
(I1
tp5649
g12
I00
S'Kf\x86\xe5\xe0\x00\x8aA'
p5650
tp5651
bsS'759'
p5652
g2
(g3
(I0
tp5653
g5
tp5654
Rp5655
(I1
(I1
tp5656
g12
I00
S'\xbb^\x9b\xec\x0b\trA'
p5657
tp5658
bsS'758'
p5659
g2
(g3
(I0
tp5660
g5
tp5661
Rp5662
(I1
(I1
tp5663
g12
I00
S'L\x0f\x1e\xc4\xcfOyA'
p5664
tp5665
bsS'1595'
p5666
g2
(g3
(I0
tp5667
g5
tp5668
Rp5669
(I1
(I1
tp5670
g12
I00
S'.\x01+\x0bV3\xa0A'
p5671
tp5672
bsS'1594'
p5673
g2
(g3
(I0
tp5674
g5
tp5675
Rp5676
(I1
(I1
tp5677
g12
I00
S'<U\x82\x8c\r\xed\xa6A'
p5678
tp5679
bsS'1597'
p5680
g2
(g3
(I0
tp5681
g5
tp5682
Rp5683
(I1
(I1
tp5684
g12
I00
S'\xc5u\xf6a\x08\x8b\x95A'
p5685
tp5686
bsS'1596'
p5687
g2
(g3
(I0
tp5688
g5
tp5689
Rp5690
(I1
(I1
tp5691
g12
I00
S'Fj\x8b*\xb2LbA'
p5692
tp5693
bsS'1591'
p5694
g2
(g3
(I0
tp5695
g5
tp5696
Rp5697
(I1
(I1
tp5698
g12
I00
S'\xa2\xab\x89}\xee\x06\x9fA'
p5699
tp5700
bsS'1590'
p5701
g2
(g3
(I0
tp5702
g5
tp5703
Rp5704
(I1
(I1
tp5705
g12
I00
S'\xdap|\x9a\xdc\x97\xa1A'
p5706
tp5707
bsS'1593'
p5708
g2
(g3
(I0
tp5709
g5
tp5710
Rp5711
(I1
(I1
tp5712
g12
I00
S'\x1fE\xbd\xa0b\xf7bA'
p5713
tp5714
bsS'1592'
p5715
g2
(g3
(I0
tp5716
g5
tp5717
Rp5718
(I1
(I1
tp5719
g12
I00
S'S\x8c\xa5\xa6\xab\xc0\x99A'
p5720
tp5721
bsS'1599'
p5722
g2
(g3
(I0
tp5723
g5
tp5724
Rp5725
(I1
(I1
tp5726
g12
I00
S'.\xce@\x1d\xaeZ\x8fA'
p5727
tp5728
bsS'1598'
p5729
g2
(g3
(I0
tp5730
g5
tp5731
Rp5732
(I1
(I1
tp5733
g12
I00
S'\x04*\xb6E^\x8c\x8aA'
p5734
tp5735
bsS'1025'
p5736
g2
(g3
(I0
tp5737
g5
tp5738
Rp5739
(I1
(I1
tp5740
g12
I00
S'\x9c6\xee\xa9\x8d\t\xa2A'
p5741
tp5742
bsS'1024'
p5743
g2
(g3
(I0
tp5744
g5
tp5745
Rp5746
(I1
(I1
tp5747
g12
I00
S'\xa2\x89;7\xb25\x8cA'
p5748
tp5749
bsS'1027'
p5750
g2
(g3
(I0
tp5751
g5
tp5752
Rp5753
(I1
(I1
tp5754
g12
I00
S'N\xa8\xf0\xa6\xaa\xe3\x82A'
p5755
tp5756
bsS'1026'
p5757
g2
(g3
(I0
tp5758
g5
tp5759
Rp5760
(I1
(I1
tp5761
g12
I00
S'|\xa1\x1b\x13\x02\xe1\x86A'
p5762
tp5763
bsS'1020'
p5764
g2
(g3
(I0
tp5765
g5
tp5766
Rp5767
(I1
(I1
tp5768
g12
I00
S'<]\x0c\x87O\x1brA'
p5769
tp5770
bsS'1023'
p5771
g2
(g3
(I0
tp5772
g5
tp5773
Rp5774
(I1
(I1
tp5775
g12
I00
S'\x02F\x18a\xcbRwA'
p5776
tp5777
bsS'1022'
p5778
g2
(g3
(I0
tp5779
g5
tp5780
Rp5781
(I1
(I1
tp5782
g12
I00
S'6\xbd\x89>\xba!mA'
p5783
tp5784
bsS'1036'
p5785
g2
(g3
(I0
tp5786
g5
tp5787
Rp5788
(I1
(I1
tp5789
g12
I00
S'(\xeb\x8aOh\x1a\x82A'
p5790
tp5791
bsS'1029'
p5792
g2
(g3
(I0
tp5793
g5
tp5794
Rp5795
(I1
(I1
tp5796
g12
I00
S'(\x85x\xe3N\x7fnA'
p5797
tp5798
bsS'1028'
p5799
g2
(g3
(I0
tp5800
g5
tp5801
Rp5802
(I1
(I1
tp5803
g12
I00
S'\x02*\xe2kN\x9c\x8bA'
p5804
tp5805
bsS'503'
p5806
g2
(g3
(I0
tp5807
g5
tp5808
Rp5809
(I1
(I1
tp5810
g12
I00
S'i\x83\xfcg\xa9\xea\x87A'
p5811
tp5812
bsS'1034'
p5813
g2
(g3
(I0
tp5814
g5
tp5815
Rp5816
(I1
(I1
tp5817
g12
I00
S'\xdbI\x9a\xe1\xa2\xe9\x9dA'
p5818
tp5819
bsS'1035'
p5820
g2
(g3
(I0
tp5821
g5
tp5822
Rp5823
(I1
(I1
tp5824
g12
I00
S'\xaf\xf3\xe1/Q\x85\x90A'
p5825
tp5826
bsS'605'
p5827
g2
(g3
(I0
tp5828
g5
tp5829
Rp5830
(I1
(I1
tp5831
g12
I00
S'\x83pB9H\xdb\x94A'
p5832
tp5833
bsS'604'
p5834
g2
(g3
(I0
tp5835
g5
tp5836
Rp5837
(I1
(I1
tp5838
g12
I00
S'\xa7\xd4\xf0>\x94\xbc\x98A'
p5839
tp5840
bsS'607'
p5841
g2
(g3
(I0
tp5842
g5
tp5843
Rp5844
(I1
(I1
tp5845
g12
I00
S'\xab\x1d\xc6\xf6\xd2\xe0\x91A'
p5846
tp5847
bsS'606'
p5848
g2
(g3
(I0
tp5849
g5
tp5850
Rp5851
(I1
(I1
tp5852
g12
I00
S'\x18\xbf7\x1ai\xaa\x8cA'
p5853
tp5854
bsS'1209'
p5855
g2
(g3
(I0
tp5856
g5
tp5857
Rp5858
(I1
(I1
tp5859
g12
I00
S'\x16*\r\xea>\xcccA'
p5860
tp5861
bsS'1208'
p5862
g2
(g3
(I0
tp5863
g5
tp5864
Rp5865
(I1
(I1
tp5866
g12
I00
S'Q\xbb\xe5/bm\x96A'
p5867
tp5868
bsS'603'
p5869
g2
(g3
(I0
tp5870
g5
tp5871
Rp5872
(I1
(I1
tp5873
g12
I00
S'\x8aR\xdc-\xa3\xc4\xb0A'
p5874
tp5875
bsS'602'
p5876
g2
(g3
(I0
tp5877
g5
tp5878
Rp5879
(I1
(I1
tp5880
g12
I00
S'K]\xfc\xbc\xd4\xf4\x88A'
p5881
tp5882
bsS'1205'
p5883
g2
(g3
(I0
tp5884
g5
tp5885
Rp5886
(I1
(I1
tp5887
g12
I00
S'\x8dqd\xe3\x15H\x95A'
p5888
tp5889
bsS'1207'
p5890
g2
(g3
(I0
tp5891
g5
tp5892
Rp5893
(I1
(I1
tp5894
g12
I00
S'E\x05F\xd2\x17\x0f\x97A'
p5895
tp5896
bsS'1206'
p5897
g2
(g3
(I0
tp5898
g5
tp5899
Rp5900
(I1
(I1
tp5901
g12
I00
S'\x81.M\x0b\x04s\x93A'
p5902
tp5903
bsS'609'
p5904
g2
(g3
(I0
tp5905
g5
tp5906
Rp5907
(I1
(I1
tp5908
g12
I00
S'Pr\xb9\x89\x9b"\xa5A'
p5909
tp5910
bsS'1210'
p5911
g2
(g3
(I0
tp5912
g5
tp5913
Rp5914
(I1
(I1
tp5915
g12
I00
S'\\v\xdd5%\x1d\x82A'
p5916
tp5917
bsS'1203'
p5918
g2
(g3
(I0
tp5919
g5
tp5920
Rp5921
(I1
(I1
tp5922
g12
I00
S'\x03\x84\x1fO\x02"\x89A'
p5923
tp5924
bsS'1202'
p5925
g2
(g3
(I0
tp5926
g5
tp5927
Rp5928
(I1
(I1
tp5929
g12
I00
S'\x08\x0e\xe9\xec\t\xe7\x84A'
p5930
tp5931
bsS'633'
p5932
g2
(g3
(I0
tp5933
g5
tp5934
Rp5935
(I1
(I1
tp5936
g12
I00
S'?\xe9\xa7Q=@\x90A'
p5937
tp5938
bsS'634'
p5939
g2
(g3
(I0
tp5940
g5
tp5941
Rp5942
(I1
(I1
tp5943
g12
I00
S'^&\xca\xb5\xab\x9e\xa0A'
p5944
tp5945
bsS'635'
p5946
g2
(g3
(I0
tp5947
g5
tp5948
Rp5949
(I1
(I1
tp5950
g12
I00
S'\x93\xbe\x00`\xf9kdA'
p5951
tp5952
bsS'1214'
p5953
g2
(g3
(I0
tp5954
g5
tp5955
Rp5956
(I1
(I1
tp5957
g12
I00
S'\x16+\x14\x04\x1a\xd0\x97A'
p5958
tp5959
bsS'1215'
p5960
g2
(g3
(I0
tp5961
g5
tp5962
Rp5963
(I1
(I1
tp5964
g12
I00
S'\x02\xc39\xb7\x85\xcbaA'
p5965
tp5966
bsS'1447'
p5967
g2
(g3
(I0
tp5968
g5
tp5969
Rp5970
(I1
(I1
tp5971
g12
I00
S'\xd0\xab\xb3%\xa7gzA'
p5972
tp5973
bsS'1110'
p5974
g2
(g3
(I0
tp5975
g5
tp5976
Rp5977
(I1
(I1
tp5978
g12
I00
S'\xdc\x11\xe5\xbd\x83\xa2bA'
p5979
tp5980
bsS'1445'
p5981
g2
(g3
(I0
tp5982
g5
tp5983
Rp5984
(I1
(I1
tp5985
g12
I00
S'dG\xf6\x9e\x96\x96hA'
p5986
tp5987
bsS'1444'
p5988
g2
(g3
(I0
tp5989
g5
tp5990
Rp5991
(I1
(I1
tp5992
g12
I00
S'\xd3H\x13=V?\xa7A'
p5993
tp5994
bsS'1443'
p5995
g2
(g3
(I0
tp5996
g5
tp5997
Rp5998
(I1
(I1
tp5999
g12
I00
S'vum\xf0b~\x94A'
p6000
tp6001
bsS'1442'
p6002
g2
(g3
(I0
tp6003
g5
tp6004
Rp6005
(I1
(I1
tp6006
g12
I00
S'~\xfb\xcb{R\xb6\x8eA'
p6007
tp6008
bsS'1441'
p6009
g2
(g3
(I0
tp6010
g5
tp6011
Rp6012
(I1
(I1
tp6013
g12
I00
S'\xcc\xba\x8dl\xc0;~A'
p6014
tp6015
bsS'1440'
p6016
g2
(g3
(I0
tp6017
g5
tp6018
Rp6019
(I1
(I1
tp6020
g12
I00
S'5G\x063\xa8\xd1\x8fA'
p6021
tp6022
bsS'1119'
p6023
g2
(g3
(I0
tp6024
g5
tp6025
Rp6026
(I1
(I1
tp6027
g12
I00
S'\x10k\rN?\xc7\xa0A'
p6028
tp6029
bsS'1118'
p6030
g2
(g3
(I0
tp6031
g5
tp6032
Rp6033
(I1
(I1
tp6034
g12
I00
S'r\x1f\xd4v\xe3\xa5`A'
p6035
tp6036
bsS'467'
p6037
g2
(g3
(I0
tp6038
g5
tp6039
Rp6040
(I1
(I1
tp6041
g12
I00
S'/Y)\xb8\xe7\xb6\x8eA'
p6042
tp6043
bsS'1449'
p6044
g2
(g3
(I0
tp6045
g5
tp6046
Rp6047
(I1
(I1
tp6048
g12
I00
S'5"\xeb\xe7\x15\x15\xaaA'
p6049
tp6050
bsS'1448'
p6051
g2
(g3
(I0
tp6052
g5
tp6053
Rp6054
(I1
(I1
tp6055
g12
I00
S'\x9bpK1\xd0\xdd\x98A'
p6056
tp6057
bsS'1350'
p6058
g2
(g3
(I0
tp6059
g5
tp6060
Rp6061
(I1
(I1
tp6062
g12
I00
S'\xfc\x85\x8fw\x13\xe6\x83A'
p6063
tp6064
bsS'1357'
p6065
g2
(g3
(I0
tp6066
g5
tp6067
Rp6068
(I1
(I1
tp6069
g12
I00
S'\x02|\x84\xa1\xa6,\xa2A'
p6070
tp6071
bsS'1356'
p6072
g2
(g3
(I0
tp6073
g5
tp6074
Rp6075
(I1
(I1
tp6076
g12
I00
S'uo\t\xdd6T\x9dA'
p6077
tp6078
bsS'1355'
p6079
g2
(g3
(I0
tp6080
g5
tp6081
Rp6082
(I1
(I1
tp6083
g12
I00
S'ZFk\x04\xb8\x1c\x9cA'
p6084
tp6085
bsS'489'
p6086
g2
(g3
(I0
tp6087
g5
tp6088
Rp6089
(I1
(I1
tp6090
g12
I00
S'\xee>\r7J\x99\x84A'
p6091
tp6092
bsS'488'
p6093
g2
(g3
(I0
tp6094
g5
tp6095
Rp6096
(I1
(I1
tp6097
g12
I00
S'\xe6\xc5\xf3L\xb5\x0b\xb0A'
p6098
tp6099
bsS'487'
p6100
g2
(g3
(I0
tp6101
g5
tp6102
Rp6103
(I1
(I1
tp6104
g12
I00
S'v\x00q>\xb2\x88cA'
p6105
tp6106
bsS'486'
p6107
g2
(g3
(I0
tp6108
g5
tp6109
Rp6110
(I1
(I1
tp6111
g12
I00
S'ol\xa1\x9a\x8ac\x8bA'
p6112
tp6113
bsS'485'
p6114
g2
(g3
(I0
tp6115
g5
tp6116
Rp6117
(I1
(I1
tp6118
g12
I00
S'\x81K\xa5\xd5\xcf\xe6\x91A'
p6119
tp6120
bsS'484'
p6121
g2
(g3
(I0
tp6122
g5
tp6123
Rp6124
(I1
(I1
tp6125
g12
I00
S'\x87\xd4/\xd8\xa2\xb9\x92A'
p6126
tp6127
bsS'483'
p6128
g2
(g3
(I0
tp6129
g5
tp6130
Rp6131
(I1
(I1
tp6132
g12
I00
S'\x90\x96\xb0\x13\x01\xaf\xa8A'
p6133
tp6134
bsS'482'
p6135
g2
(g3
(I0
tp6136
g5
tp6137
Rp6138
(I1
(I1
tp6139
g12
I00
S'\xdc\xb9M\x19\xf8s\x8cA'
p6140
tp6141
bsS'481'
p6142
g2
(g3
(I0
tp6143
g5
tp6144
Rp6145
(I1
(I1
tp6146
g12
I00
S'\x8a\xd7h\xffx\x03uA'
p6147
tp6148
bsS'480'
p6149
g2
(g3
(I0
tp6150
g5
tp6151
Rp6152
(I1
(I1
tp6153
g12
I00
S'\xdf;\x8ab\xed>\x8cA'
p6154
tp6155
bsS'695'
p6156
g2
(g3
(I0
tp6157
g5
tp6158
Rp6159
(I1
(I1
tp6160
g12
I00
S'P\xf1\xc6&)w\x87A'
p6161
tp6162
bsS'199'
p6163
g2
(g3
(I0
tp6164
g5
tp6165
Rp6166
(I1
(I1
tp6167
g12
I00
S'z{"P\xb4\xba\x8dA'
p6168
tp6169
bsS'198'
p6170
g2
(g3
(I0
tp6171
g5
tp6172
Rp6173
(I1
(I1
tp6174
g12
I00
S'R\xa5\x15\x14\xf0\xc4cA'
p6175
tp6176
bsS'195'
p6177
g2
(g3
(I0
tp6178
g5
tp6179
Rp6180
(I1
(I1
tp6181
g12
I00
S'\x8b\xf0\xfe\xec\xb4!rA'
p6182
tp6183
bsS'194'
p6184
g2
(g3
(I0
tp6185
g5
tp6186
Rp6187
(I1
(I1
tp6188
g12
I00
S'\xc4yM\xba\x0e\x97oA'
p6189
tp6190
bsS'197'
p6191
g2
(g3
(I0
tp6192
g5
tp6193
Rp6194
(I1
(I1
tp6195
g12
I00
S'\x04YM\xa3\x8bh\x90A'
p6196
tp6197
bsS'196'
p6198
g2
(g3
(I0
tp6199
g5
tp6200
Rp6201
(I1
(I1
tp6202
g12
I00
S'Kv\x87iD\xc8^A'
p6203
tp6204
bsS'191'
p6205
g2
(g3
(I0
tp6206
g5
tp6207
Rp6208
(I1
(I1
tp6209
g12
I00
S'.\xe9O\x10\x10\xf6\x8aA'
p6210
tp6211
bsS'190'
p6212
g2
(g3
(I0
tp6213
g5
tp6214
Rp6215
(I1
(I1
tp6216
g12
I00
S'\xeeK\xf3zZ\x11\xa2A'
p6217
tp6218
bsS'193'
p6219
g2
(g3
(I0
tp6220
g5
tp6221
Rp6222
(I1
(I1
tp6223
g12
I00
S'\x90b\x9e\x93=!\x80A'
p6224
tp6225
bsS'192'
p6226
g2
(g3
(I0
tp6227
g5
tp6228
Rp6229
(I1
(I1
tp6230
g12
I00
S'\x10.\x16\xd37\x8fmA'
p6231
tp6232
bsS'1107'
p6233
g2
(g3
(I0
tp6234
g5
tp6235
Rp6236
(I1
(I1
tp6237
g12
I00
S'{ME\xfb~\xde\x8eA'
p6238
tp6239
bsS'1104'
p6240
g2
(g3
(I0
tp6241
g5
tp6242
Rp6243
(I1
(I1
tp6244
g12
I00
S'\x80\xb7\x16\xa3\xf1\xb5sA'
p6245
tp6246
bsS'1457'
p6247
g2
(g3
(I0
tp6248
g5
tp6249
Rp6250
(I1
(I1
tp6251
g12
I00
S'\xbaE)\xd0M\xa7kA'
p6252
tp6253
bsS'1102'
p6254
g2
(g3
(I0
tp6255
g5
tp6256
Rp6257
(I1
(I1
tp6258
g12
I00
S'<g\\]\x11\xf9\x89A'
p6259
tp6260
bsS'1451'
p6261
g2
(g3
(I0
tp6262
g5
tp6263
Rp6264
(I1
(I1
tp6265
g12
I00
S'cT\x1b\xf4\xca\xfb\x9bA'
p6266
tp6267
bsS'1100'
p6268
g2
(g3
(I0
tp6269
g5
tp6270
Rp6271
(I1
(I1
tp6272
g12
I00
S'\xd18un\t4\x9aA'
p6273
tp6274
bsS'1101'
p6275
g2
(g3
(I0
tp6276
g5
tp6277
Rp6278
(I1
(I1
tp6279
g12
I00
S'\xb8\x8e\xb2\x88\xf5^\xa0A'
p6280
tp6281
bsS'902'
p6282
g2
(g3
(I0
tp6283
g5
tp6284
Rp6285
(I1
(I1
tp6286
g12
I00
S'\x1c\xfd\x7f\xa5\x99\xe1\x87A'
p6287
tp6288
bsS'903'
p6289
g2
(g3
(I0
tp6290
g5
tp6291
Rp6292
(I1
(I1
tp6293
g12
I00
S'FC\xec\xf7-y\x8dA'
p6294
tp6295
bsS'900'
p6296
g2
(g3
(I0
tp6297
g5
tp6298
Rp6299
(I1
(I1
tp6300
g12
I00
S'\xba\xd8\x97\x82\x8e\xb9\x96A'
p6301
tp6302
bsS'901'
p6303
g2
(g3
(I0
tp6304
g5
tp6305
Rp6306
(I1
(I1
tp6307
g12
I00
S'\xfd\xc5\xca"\xa3X\xadA'
p6308
tp6309
bsS'906'
p6310
g2
(g3
(I0
tp6311
g5
tp6312
Rp6313
(I1
(I1
tp6314
g12
I00
S"'7v\xcf\xf4\xb4\x95A"
p6315
tp6316
bsS'907'
p6317
g2
(g3
(I0
tp6318
g5
tp6319
Rp6320
(I1
(I1
tp6321
g12
I00
S'\xbdJ\xd5xi5\x92A'
p6322
tp6323
bsS'904'
p6324
g2
(g3
(I0
tp6325
g5
tp6326
Rp6327
(I1
(I1
tp6328
g12
I00
S'Q\xd3\x94\x12\x19+gA'
p6329
tp6330
bsS'905'
p6331
g2
(g3
(I0
tp6332
g5
tp6333
Rp6334
(I1
(I1
tp6335
g12
I00
S'\xec\xd4\x80I\xf8\xff\x8eA'
p6336
tp6337
bsS'1843'
p6338
g2
(g3
(I0
tp6339
g5
tp6340
Rp6341
(I1
(I1
tp6342
g12
I00
S'\x026\xb1\xe5\xdd\xf0iA'
p6343
tp6344
bsS'1842'
p6345
g2
(g3
(I0
tp6346
g5
tp6347
Rp6348
(I1
(I1
tp6349
g12
I00
S'\x026\xb1\xe5\xdd\xf0iA'
p6350
tp6351
bsS'908'
p6352
g2
(g3
(I0
tp6353
g5
tp6354
Rp6355
(I1
(I1
tp6356
g12
I00
S' \xd7\xdek\x0e3bA'
p6357
tp6358
bsS'909'
p6359
g2
(g3
(I0
tp6360
g5
tp6361
Rp6362
(I1
(I1
tp6363
g12
I00
S'\xb5\x14#\x17S\x87\xafA'
p6364
tp6365
bsS'1847'
p6366
g2
(g3
(I0
tp6367
g5
tp6368
Rp6369
(I1
(I1
tp6370
g12
I00
S'\x026\xb1\xe5\xdd\xf0iA'
p6371
tp6372
bsS'1846'
p6373
g2
(g3
(I0
tp6374
g5
tp6375
Rp6376
(I1
(I1
tp6377
g12
I00
S'\x026\xb1\xe5\xdd\xf0iA'
p6378
tp6379
bsS'1845'
p6380
g2
(g3
(I0
tp6381
g5
tp6382
Rp6383
(I1
(I1
tp6384
g12
I00
S'\x026\xb1\xe5\xdd\xf0iA'
p6385
tp6386
bsS'1844'
p6387
g2
(g3
(I0
tp6388
g5
tp6389
Rp6390
(I1
(I1
tp6391
g12
I00
S'\x026\xb1\xe5\xdd\xf0iA'
p6392
tp6393
bsS'856'
p6394
g2
(g3
(I0
tp6395
g5
tp6396
Rp6397
(I1
(I1
tp6398
g12
I00
S"\x94R'(\x8f\x02\x8eA"
p6399
tp6400
bsS'857'
p6401
g2
(g3
(I0
tp6402
g5
tp6403
Rp6404
(I1
(I1
tp6405
g12
I00
S'V\x04\xbe\x86r3\x8fA'
p6406
tp6407
bsS'850'
p6408
g2
(g3
(I0
tp6409
g5
tp6410
Rp6411
(I1
(I1
tp6412
g12
I00
S'`t\xe2G\xfe\xf2qA'
p6413
tp6414
bsS'851'
p6415
g2
(g3
(I0
tp6416
g5
tp6417
Rp6418
(I1
(I1
tp6419
g12
I00
S'LP8Y\xab\x8c\x80A'
p6420
tp6421
bsS'852'
p6422
g2
(g3
(I0
tp6423
g5
tp6424
Rp6425
(I1
(I1
tp6426
g12
I00
S'H\xb5Z),\x9e\x94A'
p6427
tp6428
bsS'853'
p6429
g2
(g3
(I0
tp6430
g5
tp6431
Rp6432
(I1
(I1
tp6433
g12
I00
S'\x1c-(\xfd\x94\x01\x9eA'
p6434
tp6435
bsS'858'
p6436
g2
(g3
(I0
tp6437
g5
tp6438
Rp6439
(I1
(I1
tp6440
g12
I00
S"'\x93!O`9\x95A"
p6441
tp6442
bsS'859'
p6443
g2
(g3
(I0
tp6444
g5
tp6445
Rp6446
(I1
(I1
tp6447
g12
I00
S'\x18\x818\x0b(\xfdvA'
p6448
tp6449
bsS'6'
p6450
g2
(g3
(I0
tp6451
g5
tp6452
Rp6453
(I1
(I1
tp6454
g12
I00
S'\x0cR\x10\x80\x14G\x90A'
p6455
tp6456
bsS'740'
p6457
g2
(g3
(I0
tp6458
g5
tp6459
Rp6460
(I1
(I1
tp6461
g12
I00
S'!)d\xe4\xe8\xf1\x91A'
p6462
tp6463
bsS'741'
p6464
g2
(g3
(I0
tp6465
g5
tp6466
Rp6467
(I1
(I1
tp6468
g12
I00
S'\xfd\xae\xa4e\x85`\x8bA'
p6469
tp6470
bsS'743'
p6471
g2
(g3
(I0
tp6472
g5
tp6473
Rp6474
(I1
(I1
tp6475
g12
I00
S'\xc4\x96DE\xd1f\xaeA'
p6476
tp6477
bsS'744'
p6478
g2
(g3
(I0
tp6479
g5
tp6480
Rp6481
(I1
(I1
tp6482
g12
I00
S'[\t2\x9a\xc6\x1f\x90A'
p6483
tp6484
bsS'746'
p6485
g2
(g3
(I0
tp6486
g5
tp6487
Rp6488
(I1
(I1
tp6489
g12
I00
S'\xf2\xc6\x83=\xce\xf4\x8eA'
p6490
tp6491
bsS'747'
p6492
g2
(g3
(I0
tp6493
g5
tp6494
Rp6495
(I1
(I1
tp6496
g12
I00
S'\x1cy\xb5\xdc"\x18\xa9A'
p6497
tp6498
bsS'748'
p6499
g2
(g3
(I0
tp6500
g5
tp6501
Rp6502
(I1
(I1
tp6503
g12
I00
S'\x8e\x86@\x8d\xd4s\xa0A'
p6504
tp6505
bsS'749'
p6506
g2
(g3
(I0
tp6507
g5
tp6508
Rp6509
(I1
(I1
tp6510
g12
I00
S'\xf5\x8euW\xab]\x98A'
p6511
tp6512
bsS'1050'
p6513
g2
(g3
(I0
tp6514
g5
tp6515
Rp6516
(I1
(I1
tp6517
g12
I00
S'\xfak\x83\x17o\x15\x85A'
p6518
tp6519
bsS'1051'
p6520
g2
(g3
(I0
tp6521
g5
tp6522
Rp6523
(I1
(I1
tp6524
g12
I00
S"'V4\xa6\xc5[\x86A"
p6525
tp6526
bsS'1052'
p6527
g2
(g3
(I0
tp6528
g5
tp6529
Rp6530
(I1
(I1
tp6531
g12
I00
S'\xe0u\xe01\x9c\x11yA'
p6532
tp6533
bsS'1053'
p6534
g2
(g3
(I0
tp6535
g5
tp6536
Rp6537
(I1
(I1
tp6538
g12
I00
S'\xdc>-\xcd\x87izA'
p6539
tp6540
bsS'1054'
p6541
g2
(g3
(I0
tp6542
g5
tp6543
Rp6544
(I1
(I1
tp6545
g12
I00
S'\x82\xb6\x02Y&\xac\xa4A'
p6546
tp6547
bsS'1055'
p6548
g2
(g3
(I0
tp6549
g5
tp6550
Rp6551
(I1
(I1
tp6552
g12
I00
S'%\xb0\xe6\xb8C9\x82A'
p6553
tp6554
bsS'1056'
p6555
g2
(g3
(I0
tp6556
g5
tp6557
Rp6558
(I1
(I1
tp6559
g12
I00
S'\x10\xee\xfb\xe5p6\x8eA'
p6560
tp6561
bsS'1057'
p6562
g2
(g3
(I0
tp6563
g5
tp6564
Rp6565
(I1
(I1
tp6566
g12
I00
S'\x8a\xb5\x82\x0c\xecX\xafA'
p6567
tp6568
bsS'1058'
p6569
g2
(g3
(I0
tp6570
g5
tp6571
Rp6572
(I1
(I1
tp6573
g12
I00
S'6\xbc\x14\xac\xd0q\x84A'
p6574
tp6575
bsS'1059'
p6576
g2
(g3
(I0
tp6577
g5
tp6578
Rp6579
(I1
(I1
tp6580
g12
I00
S'TWE\xba\x82Z\x84A'
p6581
tp6582
bsS'1696'
p6583
g2
(g3
(I0
tp6584
g5
tp6585
Rp6586
(I1
(I1
tp6587
g12
I00
S'\x90\x9f\xec\xed3JbA'
p6588
tp6589
bsS'1697'
p6590
g2
(g3
(I0
tp6591
g5
tp6592
Rp6593
(I1
(I1
tp6594
g12
I00
S'\xd2\xf1\x90\x8f\x8d\xb8~A'
p6595
tp6596
bsS'1694'
p6597
g2
(g3
(I0
tp6598
g5
tp6599
Rp6600
(I1
(I1
tp6601
g12
I00
S'\x17\x8c8\x8a\x17\x87\x98A'
p6602
tp6603
bsS'1695'
p6604
g2
(g3
(I0
tp6605
g5
tp6606
Rp6607
(I1
(I1
tp6608
g12
I00
S'\xd7\xd8m\x0caD\x98A'
p6609
tp6610
bsS'1692'
p6611
g2
(g3
(I0
tp6612
g5
tp6613
Rp6614
(I1
(I1
tp6615
g12
I00
S'\xa5i\xbc@:\xee\x9eA'
p6616
tp6617
bsS'1693'
p6618
g2
(g3
(I0
tp6619
g5
tp6620
Rp6621
(I1
(I1
tp6622
g12
I00
S'y\x8d{a\x92\xf7\x94A'
p6623
tp6624
bsS'1690'
p6625
g2
(g3
(I0
tp6626
g5
tp6627
Rp6628
(I1
(I1
tp6629
g12
I00
S'\xbd\xcaz\xc9\xff/\x92A'
p6630
tp6631
bsS'1691'
p6632
g2
(g3
(I0
tp6633
g5
tp6634
Rp6635
(I1
(I1
tp6636
g12
I00
S'\xeb\xd9\xa5\xb5\xee\xb7\x97A'
p6637
tp6638
bsS'1791'
p6639
g2
(g3
(I0
tp6640
g5
tp6641
Rp6642
(I1
(I1
tp6643
g12
I00
S'\x026\xb1\xe5\xdd\xf0iA'
p6644
tp6645
bsS'1698'
p6646
g2
(g3
(I0
tp6647
g5
tp6648
Rp6649
(I1
(I1
tp6650
g12
I00
S'Ans\xeeH\xc4\x86A'
p6651
tp6652
bsS'1699'
p6653
g2
(g3
(I0
tp6654
g5
tp6655
Rp6656
(I1
(I1
tp6657
g12
I00
S'\xd4\x8c\xdb\xb5\n\xf4\x97A'
p6658
tp6659
bsS'1278'
p6660
g2
(g3
(I0
tp6661
g5
tp6662
Rp6663
(I1
(I1
tp6664
g12
I00
S'\xa7\x8d\x06\xb2r$\x90A'
p6665
tp6666
bsS'1279'
p6667
g2
(g3
(I0
tp6668
g5
tp6669
Rp6670
(I1
(I1
tp6671
g12
I00
S'".\xfdW/%\x9aA'
p6672
tp6673
bsS'618'
p6674
g2
(g3
(I0
tp6675
g5
tp6676
Rp6677
(I1
(I1
tp6678
g12
I00
S'\xb6\x87\x93\xa0\x08\xab\x95A'
p6679
tp6680
bsS'619'
p6681
g2
(g3
(I0
tp6682
g5
tp6683
Rp6684
(I1
(I1
tp6685
g12
I00
S' \xccj\x06\x9e\xb3\x7fA'
p6686
tp6687
bsS'1270'
p6688
g2
(g3
(I0
tp6689
g5
tp6690
Rp6691
(I1
(I1
tp6692
g12
I00
S'8\xc0\x1f\xc0\xc2\x18\\A'
p6693
tp6694
bsS'613'
p6695
g2
(g3
(I0
tp6696
g5
tp6697
Rp6698
(I1
(I1
tp6699
g12
I00
S'go\xe3#ir\x91A'
p6700
tp6701
bsS'1272'
p6702
g2
(g3
(I0
tp6703
g5
tp6704
Rp6705
(I1
(I1
tp6706
g12
I00
S'\xc4\xf4\x0e3\x93\x9f\x90A'
p6707
tp6708
bsS'1273'
p6709
g2
(g3
(I0
tp6710
g5
tp6711
Rp6712
(I1
(I1
tp6713
g12
I00
S']\rN8V\x7f\x94A'
p6714
tp6715
bsS'616'
p6716
g2
(g3
(I0
tp6717
g5
tp6718
Rp6719
(I1
(I1
tp6720
g12
I00
S'\x1f\xbf\xe9&2HrA'
p6721
tp6722
bsS'617'
p6723
g2
(g3
(I0
tp6724
g5
tp6725
Rp6726
(I1
(I1
tp6727
g12
I00
S'\x01\xc2]\xba}\xcc\x9dA'
p6728
tp6729
bsS'1276'
p6730
g2
(g3
(I0
tp6731
g5
tp6732
Rp6733
(I1
(I1
tp6734
g12
I00
S'\x97\x9c%\x01\xc0\xb9aA'
p6735
tp6736
bsS'615'
p6737
g2
(g3
(I0
tp6738
g5
tp6739
Rp6740
(I1
(I1
tp6741
g12
I00
S'\xb1x8\x92k\xea}A'
p6742
tp6743
bsS'711'
p6744
g2
(g3
(I0
tp6745
g5
tp6746
Rp6747
(I1
(I1
tp6748
g12
I00
S'\x9f\r\x97\xba\xf6\xfd\x90A'
p6749
tp6750
bsS'710'
p6751
g2
(g3
(I0
tp6752
g5
tp6753
Rp6754
(I1
(I1
tp6755
g12
I00
S']\xdf\xafO\xef\x1e\x91A'
p6756
tp6757
bsS'1472'
p6758
g2
(g3
(I0
tp6759
g5
tp6760
Rp6761
(I1
(I1
tp6762
g12
I00
S'\xc4^y\xf0\xbe\xc4\x8eA'
p6763
tp6764
bsS'1473'
p6765
g2
(g3
(I0
tp6766
g5
tp6767
Rp6768
(I1
(I1
tp6769
g12
I00
S'\xb5\xaa\xe0\x80\xf9\x06\x99A'
p6770
tp6771
bsS'1476'
p6772
g2
(g3
(I0
tp6773
g5
tp6774
Rp6775
(I1
(I1
tp6776
g12
I00
S'f\x99\xf80\x1e\xeb\xa6A'
p6777
tp6778
bsS'1477'
p6779
g2
(g3
(I0
tp6780
g5
tp6781
Rp6782
(I1
(I1
tp6783
g12
I00
S'\xf8\xdc\x8eV\xcd\xa5\x8eA'
p6784
tp6785
bsS'1474'
p6786
g2
(g3
(I0
tp6787
g5
tp6788
Rp6789
(I1
(I1
tp6790
g12
I00
S'l\xfb\xb6\xfc"\xe1\x8aA'
p6791
tp6792
bsS'1475'
p6793
g2
(g3
(I0
tp6794
g5
tp6795
Rp6796
(I1
(I1
tp6797
g12
I00
S'\x913\xc8\xe1\x02\xa8bA'
p6798
tp6799
bsS'1304'
p6800
g2
(g3
(I0
tp6801
g5
tp6802
Rp6803
(I1
(I1
tp6804
g12
I00
S'\x99Vk\xe0\xa3\xab\xa1A'
p6805
tp6806
bsS'1305'
p6807
g2
(g3
(I0
tp6808
g5
tp6809
Rp6810
(I1
(I1
tp6811
g12
I00
S'pj\xc5\x05\xd8L\x9fA'
p6812
tp6813
bsS'1306'
p6814
g2
(g3
(I0
tp6815
g5
tp6816
Rp6817
(I1
(I1
tp6818
g12
I00
S'D"\x85\xe3\x9e\xf9\xa1A'
p6819
tp6820
bsS'1307'
p6821
g2
(g3
(I0
tp6822
g5
tp6823
Rp6824
(I1
(I1
tp6825
g12
I00
S'\xab\x8fh\x1bU\x0f\xa1A'
p6826
tp6827
bsS'1300'
p6828
g2
(g3
(I0
tp6829
g5
tp6830
Rp6831
(I1
(I1
tp6832
g12
I00
S'\x13<\xe6\xbdVL\x99A'
p6833
tp6834
bsS'1301'
p6835
g2
(g3
(I0
tp6836
g5
tp6837
Rp6838
(I1
(I1
tp6839
g12
I00
S'$\xf9\x90\xe4-+xA'
p6840
tp6841
bsS'1302'
p6842
g2
(g3
(I0
tp6843
g5
tp6844
Rp6845
(I1
(I1
tp6846
g12
I00
S'nBD\xb3dF\xa0A'
p6847
tp6848
bsS'1303'
p6849
g2
(g3
(I0
tp6850
g5
tp6851
Rp6852
(I1
(I1
tp6853
g12
I00
S'\xde\x13|\x9a\x14\xf3\xa1A'
p6854
tp6855
bsS'1308'
p6856
g2
(g3
(I0
tp6857
g5
tp6858
Rp6859
(I1
(I1
tp6860
g12
I00
S'3\x8c\r:\xd5AaA'
p6861
tp6862
bsS'1309'
p6863
g2
(g3
(I0
tp6864
g5
tp6865
Rp6866
(I1
(I1
tp6867
g12
I00
S'f\x11\xf9=\x96\xba\xa5A'
p6868
tp6869
bsS'498'
p6870
g2
(g3
(I0
tp6871
g5
tp6872
Rp6873
(I1
(I1
tp6874
g12
I00
S'W\x12\xb6?\xb3\x18vA'
p6875
tp6876
bsS'499'
p6877
g2
(g3
(I0
tp6878
g5
tp6879
Rp6880
(I1
(I1
tp6881
g12
I00
S'P\x9b\x81\xa4\x9fm\x9eA'
p6882
tp6883
bsS'494'
p6884
g2
(g3
(I0
tp6885
g5
tp6886
Rp6887
(I1
(I1
tp6888
g12
I00
S'P\x13R\xe9S\x11\x9aA'
p6889
tp6890
bsS'495'
p6891
g2
(g3
(I0
tp6892
g5
tp6893
Rp6894
(I1
(I1
tp6895
g12
I00
S'`5\x1b\xf848\x85A'
p6896
tp6897
bsS'496'
p6898
g2
(g3
(I0
tp6899
g5
tp6900
Rp6901
(I1
(I1
tp6902
g12
I00
S'\x12\xae\xa3\x8c=\xf0\x84A'
p6903
tp6904
bsS'497'
p6905
g2
(g3
(I0
tp6906
g5
tp6907
Rp6908
(I1
(I1
tp6909
g12
I00
S'\xbf\x87g\xf6\xd4C\x9aA'
p6910
tp6911
bsS'490'
p6912
g2
(g3
(I0
tp6913
g5
tp6914
Rp6915
(I1
(I1
tp6916
g12
I00
S'gMZC\xc3\x04\x9fA'
p6917
tp6918
bsS'492'
p6919
g2
(g3
(I0
tp6920
g5
tp6921
Rp6922
(I1
(I1
tp6923
g12
I00
S'\x03\xe7G\xe2y\x83\xa3A'
p6924
tp6925
bsS'493'
p6926
g2
(g3
(I0
tp6927
g5
tp6928
Rp6929
(I1
(I1
tp6930
g12
I00
S'6\xd5\xa2\xe9\x80\xc5\x91A'
p6931
tp6932
bsS'24'
p6933
g2
(g3
(I0
tp6934
g5
tp6935
Rp6936
(I1
(I1
tp6937
g12
I00
S'\x06\x98e\xee\x0c\\\x9bA'
p6938
tp6939
bsS'25'
p6940
g2
(g3
(I0
tp6941
g5
tp6942
Rp6943
(I1
(I1
tp6944
g12
I00
S'g\x1e1\xb36\x87\x86A'
p6945
tp6946
bsS'26'
p6947
g2
(g3
(I0
tp6948
g5
tp6949
Rp6950
(I1
(I1
tp6951
g12
I00
S'6h\x8bdk\n\x8dA'
p6952
tp6953
bsS'27'
p6954
g2
(g3
(I0
tp6955
g5
tp6956
Rp6957
(I1
(I1
tp6958
g12
I00
S'\x91>.\xcbD\xed\x99A'
p6959
tp6960
bsS'20'
p6961
g2
(g3
(I0
tp6962
g5
tp6963
Rp6964
(I1
(I1
tp6965
g12
I00
S'\xca\xdes\xff\x131\x95A'
p6966
tp6967
bsS'21'
p6968
g2
(g3
(I0
tp6969
g5
tp6970
Rp6971
(I1
(I1
tp6972
g12
I00
S'\xa4\xce\x97\xe8C\x9a\x83A'
p6973
tp6974
bsS'22'
p6975
g2
(g3
(I0
tp6976
g5
tp6977
Rp6978
(I1
(I1
tp6979
g12
I00
S'[\xdds|\x18+bA'
p6980
tp6981
bsS'23'
p6982
g2
(g3
(I0
tp6983
g5
tp6984
Rp6985
(I1
(I1
tp6986
g12
I00
S'zV\xab\x9a\x0f!qA'
p6987
tp6988
bsS'29'
p6989
g2
(g3
(I0
tp6990
g5
tp6991
Rp6992
(I1
(I1
tp6993
g12
I00
S'\xa8\xa7oZ\x8e,oA'
p6994
tp6995
bsS'1241'
p6996
g2
(g3
(I0
tp6997
g5
tp6998
Rp6999
(I1
(I1
tp7000
g12
I00
S'\xc9\x87\xd7\x10\x8c\xb0\x95A'
p7001
tp7002
bsS'1875'
p7003
g2
(g3
(I0
tp7004
g5
tp7005
Rp7006
(I1
(I1
tp7007
g12
I00
S'\x026\xb1\xe5\xdd\xf0iA'
p7008
tp7009
bsS'1511'
p7010
g2
(g3
(I0
tp7011
g5
tp7012
Rp7013
(I1
(I1
tp7014
g12
I00
S'&iT\x80t\xd2bA'
p7015
tp7016
bsS'446'
p7017
g2
(g3
(I0
tp7018
g5
tp7019
Rp7020
(I1
(I1
tp7021
g12
I00
S'\xa7\xd0Ry|\xc8\x96A'
p7022
tp7023
bsS'591'
p7024
g2
(g3
(I0
tp7025
g5
tp7026
Rp7027
(I1
(I1
tp7028
g12
I00
S'\x85\xbb\xa1v\xa8\x80\x94A'
p7029
tp7030
bsS'590'
p7031
g2
(g3
(I0
tp7032
g5
tp7033
Rp7034
(I1
(I1
tp7035
g12
I00
S"\xae\xbf\xfd\x9c'y\x9bA"
p7036
tp7037
bsS'1085'
p7038
g2
(g3
(I0
tp7039
g5
tp7040
Rp7041
(I1
(I1
tp7042
g12
I00
S'\xb0\x86\xfe(\x96{\xa0A'
p7043
tp7044
bsS'1876'
p7045
g2
(g3
(I0
tp7046
g5
tp7047
Rp7048
(I1
(I1
tp7049
g12
I00
S'\x026\xb1\xe5\xdd\xf0iA'
p7050
tp7051
bsS'1877'
p7052
g2
(g3
(I0
tp7053
g5
tp7054
Rp7055
(I1
(I1
tp7056
g12
I00
S'\x026\xb1\xe5\xdd\xf0iA'
p7057
tp7058
bsS'1874'
p7059
g2
(g3
(I0
tp7060
g5
tp7061
Rp7062
(I1
(I1
tp7063
g12
I00
S'\x026\xb1\xe5\xdd\xf0iA'
p7064
tp7065
bsS'1084'
p7066
g2
(g3
(I0
tp7067
g5
tp7068
Rp7069
(I1
(I1
tp7070
g12
I00
S'\xe6\xc9\x8d\x7fm\xcbhA'
p7071
tp7072
bsS'1872'
p7073
g2
(g3
(I0
tp7074
g5
tp7075
Rp7076
(I1
(I1
tp7077
g12
I00
S'\x026\xb1\xe5\xdd\xf0iA'
p7078
tp7079
bsS'1873'
p7080
g2
(g3
(I0
tp7081
g5
tp7082
Rp7083
(I1
(I1
tp7084
g12
I00
S'\x026\xb1\xe5\xdd\xf0iA'
p7085
tp7086
bsS'1870'
p7087
g2
(g3
(I0
tp7088
g5
tp7089
Rp7090
(I1
(I1
tp7091
g12
I00
S'\x026\xb1\xe5\xdd\xf0iA'
p7092
tp7093
bsS'1871'
p7094
g2
(g3
(I0
tp7095
g5
tp7096
Rp7097
(I1
(I1
tp7098
g12
I00
S'\x026\xb1\xe5\xdd\xf0iA'
p7099
tp7100
bsS'1083'
p7101
g2
(g3
(I0
tp7102
g5
tp7103
Rp7104
(I1
(I1
tp7105
g12
I00
S'\x00X\x1cy\xe6\\\xa4A'
p7106
tp7107
bsS'1878'
p7108
g2
(g3
(I0
tp7109
g5
tp7110
Rp7111
(I1
(I1
tp7112
g12
I00
S'\x026\xb1\xe5\xdd\xf0iA'
p7113
tp7114
bsS'1879'
p7115
g2
(g3
(I0
tp7116
g5
tp7117
Rp7118
(I1
(I1
tp7119
g12
I00
S'\x026\xb1\xe5\xdd\xf0iA'
p7120
tp7121
bsS'977'
p7122
g2
(g3
(I0
tp7123
g5
tp7124
Rp7125
(I1
(I1
tp7126
g12
I00
S'\xaa\xc6j1\x9f\x84\x89A'
p7127
tp7128
bsS'976'
p7129
g2
(g3
(I0
tp7130
g5
tp7131
Rp7132
(I1
(I1
tp7133
g12
I00
S'\xb3&\x15a\xd8AqA'
p7134
tp7135
bsS'975'
p7136
g2
(g3
(I0
tp7137
g5
tp7138
Rp7139
(I1
(I1
tp7140
g12
I00
S"\xfdj\x83'\xfe\xc0\xa1A"
p7141
tp7142
bsS'974'
p7143
g2
(g3
(I0
tp7144
g5
tp7145
Rp7146
(I1
(I1
tp7147
g12
I00
S'.\xaf\x95.\xfd~\xabA'
p7148
tp7149
bsS'973'
p7150
g2
(g3
(I0
tp7151
g5
tp7152
Rp7153
(I1
(I1
tp7154
g12
I00
S'uv\xc1\x99\xf2\xbb\xabA'
p7155
tp7156
bsS'972'
p7157
g2
(g3
(I0
tp7158
g5
tp7159
Rp7160
(I1
(I1
tp7161
g12
I00
S'\x0c\xcbTuO\xb2\xaeA'
p7162
tp7163
bsS'971'
p7164
g2
(g3
(I0
tp7165
g5
tp7166
Rp7167
(I1
(I1
tp7168
g12
I00
S'R\xbd\x05\xca\x0b\xa9\x81A'
p7169
tp7170
bsS'970'
p7171
g2
(g3
(I0
tp7172
g5
tp7173
Rp7174
(I1
(I1
tp7175
g12
I00
S'\xbd$\x99\xa3W\xf0\x86A'
p7176
tp7177
bsS'979'
p7178
g2
(g3
(I0
tp7179
g5
tp7180
Rp7181
(I1
(I1
tp7182
g12
I00
S'\xe8\xa7\x9e3\x92\xb6\xa3A'
p7183
tp7184
bsS'978'
p7185
g2
(g3
(I0
tp7186
g5
tp7187
Rp7188
(I1
(I1
tp7189
g12
I00
S'\xd7b\x1ex\x14crA'
p7190
tp7191
bsS'182'
p7192
g2
(g3
(I0
tp7193
g5
tp7194
Rp7195
(I1
(I1
tp7196
g12
I00
S'\xf2\x05\xf1Xt"\x89A'
p7197
tp7198
bsS'183'
p7199
g2
(g3
(I0
tp7200
g5
tp7201
Rp7202
(I1
(I1
tp7203
g12
I00
S'\x19\xd5@\xc6v\x8a\x99A'
p7204
tp7205
bsS'180'
p7206
g2
(g3
(I0
tp7207
g5
tp7208
Rp7209
(I1
(I1
tp7210
g12
I00
S'\xc2\xc4\xd7\x1d \x11dA'
p7211
tp7212
bsS'181'
p7213
g2
(g3
(I0
tp7214
g5
tp7215
Rp7216
(I1
(I1
tp7217
g12
I00
S'%12>\x1e%\x9bA'
p7218
tp7219
bsS'186'
p7220
g2
(g3
(I0
tp7221
g5
tp7222
Rp7223
(I1
(I1
tp7224
g12
I00
S'\x8fWg9\x00C\x92A'
p7225
tp7226
bsS'187'
p7227
g2
(g3
(I0
tp7228
g5
tp7229
Rp7230
(I1
(I1
tp7231
g12
I00
S'\x85\x83\x14\xfd \x81\x93A'
p7232
tp7233
bsS'184'
p7234
g2
(g3
(I0
tp7235
g5
tp7236
Rp7237
(I1
(I1
tp7238
g12
I00
S'z\x90\xce\x8c\x96@\x8eA'
p7239
tp7240
bsS'185'
p7241
g2
(g3
(I0
tp7242
g5
tp7243
Rp7244
(I1
(I1
tp7245
g12
I00
S'\x98\xc7\xf8\xc2\xc05\x7fA'
p7246
tp7247
bsS'188'
p7248
g2
(g3
(I0
tp7249
g5
tp7250
Rp7251
(I1
(I1
tp7252
g12
I00
S'=\x1cX8p\x8a\x96A'
p7253
tp7254
bsS'189'
p7255
g2
(g3
(I0
tp7256
g5
tp7257
Rp7258
(I1
(I1
tp7259
g12
I00
S'\xe5_\xa5\x8b:\x11\x87A'
p7260
tp7261
bsS'869'
p7262
g2
(g3
(I0
tp7263
g5
tp7264
Rp7265
(I1
(I1
tp7266
g12
I00
S'^\xd3l\xd0!\x1bhA'
p7267
tp7268
bsS'868'
p7269
g2
(g3
(I0
tp7270
g5
tp7271
Rp7272
(I1
(I1
tp7273
g12
I00
S'Ns\xc6P\xc8\xf6\x8aA'
p7274
tp7275
bsS'861'
p7276
g2
(g3
(I0
tp7277
g5
tp7278
Rp7279
(I1
(I1
tp7280
g12
I00
S'C\t\xf0\x063W\x89A'
p7281
tp7282
bsS'860'
p7283
g2
(g3
(I0
tp7284
g5
tp7285
Rp7286
(I1
(I1
tp7287
g12
I00
S'\x13!\xd0\xe4\xd7.\x87A'
p7288
tp7289
bsS'863'
p7290
g2
(g3
(I0
tp7291
g5
tp7292
Rp7293
(I1
(I1
tp7294
g12
I00
S"\xac\xfa'\xcd\xd6b\x91A"
p7295
tp7296
bsS'865'
p7297
g2
(g3
(I0
tp7298
g5
tp7299
Rp7300
(I1
(I1
tp7301
g12
I00
S'[C\xe5\xab\x18S\x90A'
p7302
tp7303
bsS'864'
p7304
g2
(g3
(I0
tp7305
g5
tp7306
Rp7307
(I1
(I1
tp7308
g12
I00
S'\x80;\xaf\x9e\xa3X\xa0A'
p7309
tp7310
bsS'867'
p7311
g2
(g3
(I0
tp7312
g5
tp7313
Rp7314
(I1
(I1
tp7315
g12
I00
S'\xf0o\x0e\xa1\x87O{A'
p7316
tp7317
bsS'866'
p7318
g2
(g3
(I0
tp7319
g5
tp7320
Rp7321
(I1
(I1
tp7322
g12
I00
S'\x90\x02\xd3\xb7\x8de\x9aA'
p7323
tp7324
bsS'883'
p7325
g2
(g3
(I0
tp7326
g5
tp7327
Rp7328
(I1
(I1
tp7329
g12
I00
S'\x034\x13\xe8\x9d)\x84A'
p7330
tp7331
bsS'882'
p7332
g2
(g3
(I0
tp7333
g5
tp7334
Rp7335
(I1
(I1
tp7336
g12
I00
S'f\x92u\xb5\xca$\x96A'
p7337
tp7338
bsS'881'
p7339
g2
(g3
(I0
tp7340
g5
tp7341
Rp7342
(I1
(I1
tp7343
g12
I00
S'Y\x90\\&\x07\xd4\x94A'
p7344
tp7345
bsS'880'
p7346
g2
(g3
(I0
tp7347
g5
tp7348
Rp7349
(I1
(I1
tp7350
g12
I00
S'7h\xd2\xf0\xac\x88\x97A'
p7351
tp7352
bsS'887'
p7353
g2
(g3
(I0
tp7354
g5
tp7355
Rp7356
(I1
(I1
tp7357
g12
I00
S'\xd2XF\xfe,EaA'
p7358
tp7359
bsS'886'
p7360
g2
(g3
(I0
tp7361
g5
tp7362
Rp7363
(I1
(I1
tp7364
g12
I00
S'\xf7\x160\x84\x8a\xed\x95A'
p7365
tp7366
bsS'884'
p7367
g2
(g3
(I0
tp7368
g5
tp7369
Rp7370
(I1
(I1
tp7371
g12
I00
S'\xd7\xa8\xb7\xd6@\xf9\x95A'
p7372
tp7373
bsS'889'
p7374
g2
(g3
(I0
tp7375
g5
tp7376
Rp7377
(I1
(I1
tp7378
g12
I00
S'p\xfc\xa3\x08\xf3K\x83A'
p7379
tp7380
bsS'888'
p7381
g2
(g3
(I0
tp7382
g5
tp7383
Rp7384
(I1
(I1
tp7385
g12
I00
S'!jIVs\x9b\x89A'
p7386
tp7387
bsS'775'
p7388
g2
(g3
(I0
tp7389
g5
tp7390
Rp7391
(I1
(I1
tp7392
g12
I00
S'\xd4\xd3\x14\xb8p+cA'
p7393
tp7394
bsS'774'
p7395
g2
(g3
(I0
tp7396
g5
tp7397
Rp7398
(I1
(I1
tp7399
g12
I00
S'+\xc3\xfe$\x86\n\x87A'
p7400
tp7401
bsS'776'
p7402
g2
(g3
(I0
tp7403
g5
tp7404
Rp7405
(I1
(I1
tp7406
g12
I00
S'r\xd1^lz\xcb\x83A'
p7407
tp7408
bsS'771'
p7409
g2
(g3
(I0
tp7410
g5
tp7411
Rp7412
(I1
(I1
tp7413
g12
I00
S'\xe3\x8b\xc6\xee(\x95\x80A'
p7414
tp7415
bsS'770'
p7416
g2
(g3
(I0
tp7417
g5
tp7418
Rp7419
(I1
(I1
tp7420
g12
I00
S'\xf6,\x1fe\xab\xad\x8cA'
p7421
tp7422
bsS'773'
p7423
g2
(g3
(I0
tp7424
g5
tp7425
Rp7426
(I1
(I1
tp7427
g12
I00
S'ah\xbc\xc2b\xae\x93A'
p7428
tp7429
bsS'772'
p7430
g2
(g3
(I0
tp7431
g5
tp7432
Rp7433
(I1
(I1
tp7434
g12
I00
S'L\x83\x97?rtuA'
p7435
tp7436
bsS'779'
p7437
g2
(g3
(I0
tp7438
g5
tp7439
Rp7440
(I1
(I1
tp7441
g12
I00
S'$\xad\x8e`\xaeF\x87A'
p7442
tp7443
bsS'778'
p7444
g2
(g3
(I0
tp7445
g5
tp7446
Rp7447
(I1
(I1
tp7448
g12
I00
S'\x08\\M$\x98\x93\x90A'
p7449
tp7450
bsS'77'
p7451
g2
(g3
(I0
tp7452
g5
tp7453
Rp7454
(I1
(I1
tp7455
g12
I00
S'\xcb+\xbb\xcf\xea\x00\x92A'
p7456
tp7457
bsS'76'
p7458
g2
(g3
(I0
tp7459
g5
tp7460
Rp7461
(I1
(I1
tp7462
g12
I00
S'\xb2\xd1R\x0b\x98\\\xa4A'
p7463
tp7464
bsS'75'
p7465
g2
(g3
(I0
tp7466
g5
tp7467
Rp7468
(I1
(I1
tp7469
g12
I00
S'Kq\xe9\xfd\xe2\xad\x90A'
p7470
tp7471
bsS'74'
p7472
g2
(g3
(I0
tp7473
g5
tp7474
Rp7475
(I1
(I1
tp7476
g12
I00
S'%\xdf\x8d\x9b\xfa\xe6UA'
p7477
tp7478
bsS'73'
p7479
g2
(g3
(I0
tp7480
g5
tp7481
Rp7482
(I1
(I1
tp7483
g12
I00
S'\xdc\xb8\xa6\tIQ\xa2A'
p7484
tp7485
bsS'72'
p7486
g2
(g3
(I0
tp7487
g5
tp7488
Rp7489
(I1
(I1
tp7490
g12
I00
S'\x052\t\xb8V\xd1\xa3A'
p7491
tp7492
bsS'71'
p7493
g2
(g3
(I0
tp7494
g5
tp7495
Rp7496
(I1
(I1
tp7497
g12
I00
S'\x9c\xec\xbd\xd5\x9fJzA'
p7498
tp7499
bsS'70'
p7500
g2
(g3
(I0
tp7501
g5
tp7502
Rp7503
(I1
(I1
tp7504
g12
I00
S'\x7f\xab\xf8\x82\xa6.\x83A'
p7505
tp7506
bsS'79'
p7507
g2
(g3
(I0
tp7508
g5
tp7509
Rp7510
(I1
(I1
tp7511
g12
I00
S'\xdat\xc8Z\xfd\xf7\x9dA'
p7512
tp7513
bsS'78'
p7514
g2
(g3
(I0
tp7515
g5
tp7516
Rp7517
(I1
(I1
tp7518
g12
I00
S';W\xda`\xad\xafbA'
p7519
tp7520
bsS'1040'
p7521
g2
(g3
(I0
tp7522
g5
tp7523
Rp7524
(I1
(I1
tp7525
g12
I00
S'@\x02\xa3\xf0d\xa0\x8eA'
p7526
tp7527
bsS'1047'
p7528
g2
(g3
(I0
tp7529
g5
tp7530
Rp7531
(I1
(I1
tp7532
g12
I00
S'\x85\xc0\xf2\xc5(GmA'
p7533
tp7534
bsS'1046'
p7535
g2
(g3
(I0
tp7536
g5
tp7537
Rp7538
(I1
(I1
tp7539
g12
I00
S'\xffq\x19\x7f\x80\xaf\x8cA'
p7540
tp7541
bsS'1045'
p7542
g2
(g3
(I0
tp7543
g5
tp7544
Rp7545
(I1
(I1
tp7546
g12
I00
S'qQ\x11oo7\x88A'
p7547
tp7548
bsS'1049'
p7549
g2
(g3
(I0
tp7550
g5
tp7551
Rp7552
(I1
(I1
tp7553
g12
I00
S'7b\xc3LB#\x90A'
p7554
tp7555
bsS'1048'
p7556
g2
(g3
(I0
tp7557
g5
tp7558
Rp7559
(I1
(I1
tp7560
g12
I00
S'\xad\x1dy\xe177\x90A'
p7561
tp7562
bsS'1681'
p7563
g2
(g3
(I0
tp7564
g5
tp7565
Rp7566
(I1
(I1
tp7567
g12
I00
S'\xdaA\xe2A\xb8V{A'
p7568
tp7569
bsS'1680'
p7570
g2
(g3
(I0
tp7571
g5
tp7572
Rp7573
(I1
(I1
tp7574
g12
I00
S'+\x91\x88D\x1fc\x8bA'
p7575
tp7576
bsS'1683'
p7577
g2
(g3
(I0
tp7578
g5
tp7579
Rp7580
(I1
(I1
tp7581
g12
I00
S'-Z\xd4`}\xff\x91A'
p7582
tp7583
bsS'1682'
p7584
g2
(g3
(I0
tp7585
g5
tp7586
Rp7587
(I1
(I1
tp7588
g12
I00
S')\xc3\x99\xf8\xdbc\x90A'
p7589
tp7590
bsS'1685'
p7591
g2
(g3
(I0
tp7592
g5
tp7593
Rp7594
(I1
(I1
tp7595
g12
I00
S'\xec\xac\xf3;\x04+\xa2A'
p7596
tp7597
bsS'1684'
p7598
g2
(g3
(I0
tp7599
g5
tp7600
Rp7601
(I1
(I1
tp7602
g12
I00
S'O\r\xb6\x86\x99C\x9bA'
p7603
tp7604
bsS'1687'
p7605
g2
(g3
(I0
tp7606
g5
tp7607
Rp7608
(I1
(I1
tp7609
g12
I00
S'\xae\xe0^"\x19*\xa3A'
p7610
tp7611
bsS'1686'
p7612
g2
(g3
(I0
tp7613
g5
tp7614
Rp7615
(I1
(I1
tp7616
g12
I00
S'\xc1\xcc\x13\x810+vA'
p7617
tp7618
bsS'1689'
p7619
g2
(g3
(I0
tp7620
g5
tp7621
Rp7622
(I1
(I1
tp7623
g12
I00
S'\x00\x9e\xf3\x995\xc3wA'
p7624
tp7625
bsS'1688'
p7626
g2
(g3
(I0
tp7627
g5
tp7628
Rp7629
(I1
(I1
tp7630
g12
I00
S'\x00\x01V[\xc5\xf0\x99A'
p7631
tp7632
bsS'1269'
p7633
g2
(g3
(I0
tp7634
g5
tp7635
Rp7636
(I1
(I1
tp7637
g12
I00
S'\xb6/C+\xfc\n\x94A'
p7638
tp7639
bsS'669'
p7640
g2
(g3
(I0
tp7641
g5
tp7642
Rp7643
(I1
(I1
tp7644
g12
I00
S'\nv\x05$w\x89\xa6A'
p7645
tp7646
bsS'668'
p7647
g2
(g3
(I0
tp7648
g5
tp7649
Rp7650
(I1
(I1
tp7651
g12
I00
S'\xc4B{\xdb\tJyA'
p7652
tp7653
bsS'1263'
p7654
g2
(g3
(I0
tp7655
g5
tp7656
Rp7657
(I1
(I1
tp7658
g12
I00
S'b\xd8\xcad\xb7\x8d\x9bA'
p7659
tp7660
bsS'1262'
p7661
g2
(g3
(I0
tp7662
g5
tp7663
Rp7664
(I1
(I1
tp7665
g12
I00
S'\x96V\xe2Z\xf0\xfbfA'
p7666
tp7667
bsS'665'
p7668
g2
(g3
(I0
tp7669
g5
tp7670
Rp7671
(I1
(I1
tp7672
g12
I00
S'\xa7\x03b\x1b\xf9O\x94A'
p7673
tp7674
bsS'664'
p7675
g2
(g3
(I0
tp7676
g5
tp7677
Rp7678
(I1
(I1
tp7679
g12
I00
S')\xbd\x9bb\xa3\xf8qA'
p7680
tp7681
bsS'663'
p7682
g2
(g3
(I0
tp7683
g5
tp7684
Rp7685
(I1
(I1
tp7686
g12
I00
S'c\xc97\xcf`\xac\x92A'
p7687
tp7688
bsS'1266'
p7689
g2
(g3
(I0
tp7690
g5
tp7691
Rp7692
(I1
(I1
tp7693
g12
I00
S'KG\xe1:\xc9\xb8\x96A'
p7694
tp7695
bsS'1265'
p7696
g2
(g3
(I0
tp7697
g5
tp7698
Rp7699
(I1
(I1
tp7700
g12
I00
S'\xc9\xeepL\xb4W\x96A'
p7701
tp7702
bsS'1264'
p7703
g2
(g3
(I0
tp7704
g5
tp7705
Rp7706
(I1
(I1
tp7707
g12
I00
S'\xd5A\x03\x9e\x19j\\A'
p7708
tp7709
bsS'640'
p7710
g2
(g3
(I0
tp7711
g5
tp7712
Rp7713
(I1
(I1
tp7714
g12
I00
S':(\xc2\\|\xcf`A'
p7715
tp7716
bsS'1469'
p7717
g2
(g3
(I0
tp7718
g5
tp7719
Rp7720
(I1
(I1
tp7721
g12
I00
S'\x00A=\xc9\xd6\xbe\x9dA'
p7722
tp7723
bsS'1468'
p7724
g2
(g3
(I0
tp7725
g5
tp7726
Rp7727
(I1
(I1
tp7728
g12
I00
S'FEV\xf8S\xf7\x8cA'
p7729
tp7730
bsS'1464'
p7731
g2
(g3
(I0
tp7732
g5
tp7733
Rp7734
(I1
(I1
tp7735
g12
I00
S'\xe4#3>\x97b\x9cA'
p7736
tp7737
bsS'1461'
p7738
g2
(g3
(I0
tp7739
g5
tp7740
Rp7741
(I1
(I1
tp7742
g12
I00
S'\xa21\xc33$i\x87A'
p7743
tp7744
bsS'1460'
p7745
g2
(g3
(I0
tp7746
g5
tp7747
Rp7748
(I1
(I1
tp7749
g12
I00
S'J\xb84\x96Rf\x8aA'
p7750
tp7751
bsS'1463'
p7752
g2
(g3
(I0
tp7753
g5
tp7754
Rp7755
(I1
(I1
tp7756
g12
I00
S'{\x9d\xa3\xe6(.ZA'
p7757
tp7758
bsS'1462'
p7759
g2
(g3
(I0
tp7760
g5
tp7761
Rp7762
(I1
(I1
tp7763
g12
I00
S'\xea\xa8\xa5A{\xc6\xa0A'
p7764
tp7765
bsS'1316'
p7766
g2
(g3
(I0
tp7767
g5
tp7768
Rp7769
(I1
(I1
tp7770
g12
I00
S'\x83>\xb9N\x06\x81\xaaA'
p7771
tp7772
bsS'1315'
p7773
g2
(g3
(I0
tp7774
g5
tp7775
Rp7776
(I1
(I1
tp7777
g12
I00
S'\x05\x0c#\x83F\x97\x86A'
p7778
tp7779
bsS'1314'
p7780
g2
(g3
(I0
tp7781
g5
tp7782
Rp7783
(I1
(I1
tp7784
g12
I00
S'\xf4\xb6j\xde\x91y\xa1A'
p7785
tp7786
bsS'1313'
p7787
g2
(g3
(I0
tp7788
g5
tp7789
Rp7790
(I1
(I1
tp7791
g12
I00
S'e/\xd1\xf5\x04M\x99A'
p7792
tp7793
bsS'1312'
p7794
g2
(g3
(I0
tp7795
g5
tp7796
Rp7797
(I1
(I1
tp7798
g12
I00
S'F\xf8\x8e\xeda\xca\x80A'
p7799
tp7800
bsS'1311'
p7801
g2
(g3
(I0
tp7802
g5
tp7803
Rp7804
(I1
(I1
tp7805
g12
I00
S'O\x97NSTq\x97A'
p7806
tp7807
bsS'1310'
p7808
g2
(g3
(I0
tp7809
g5
tp7810
Rp7811
(I1
(I1
tp7812
g12
I00
S'\xa2`\x9d\xa5\xae\t\x8fA'
p7813
tp7814
bsS'1319'
p7815
g2
(g3
(I0
tp7816
g5
tp7817
Rp7818
(I1
(I1
tp7819
g12
I00
S'g\x1dE\xd0\xfc\x1e\xa3A'
p7820
tp7821
bsS'529'
p7822
g2
(g3
(I0
tp7823
g5
tp7824
Rp7825
(I1
(I1
tp7826
g12
I00
S'\xaa\x82\xfc\xd3\x95fbA'
p7827
tp7828
bsS'319'
p7829
g2
(g3
(I0
tp7830
g5
tp7831
Rp7832
(I1
(I1
tp7833
g12
I00
S'`1\r\x81\xbb\r\x8cA'
p7834
tp7835
bsS'318'
p7836
g2
(g3
(I0
tp7837
g5
tp7838
Rp7839
(I1
(I1
tp7840
g12
I00
S'\xb5\x86\xd9\xd8\xde&rA'
p7841
tp7842
bsS'313'
p7843
g2
(g3
(I0
tp7844
g5
tp7845
Rp7846
(I1
(I1
tp7847
g12
I00
S'\xe7\x85\x1d\x0er\xc3ZA'
p7848
tp7849
bsS'312'
p7850
g2
(g3
(I0
tp7851
g5
tp7852
Rp7853
(I1
(I1
tp7854
g12
I00
S'\x9d\x90\xb1)OJ\x80A'
p7855
tp7856
bsS'311'
p7857
g2
(g3
(I0
tp7858
g5
tp7859
Rp7860
(I1
(I1
tp7861
g12
I00
S'nu\xcdX\x1es\x9fA'
p7862
tp7863
bsS'317'
p7864
g2
(g3
(I0
tp7865
g5
tp7866
Rp7867
(I1
(I1
tp7868
g12
I00
S'2\xb5y\x8f\xd7\xc3\x83A'
p7869
tp7870
bsS'316'
p7871
g2
(g3
(I0
tp7872
g5
tp7873
Rp7874
(I1
(I1
tp7875
g12
I00
S'M\xa1\x021.j\xa8A'
p7876
tp7877
bsS'315'
p7878
g2
(g3
(I0
tp7879
g5
tp7880
Rp7881
(I1
(I1
tp7882
g12
I00
S'\x19\x91\x19\x17t\x12pA'
p7883
tp7884
bsS'314'
p7885
g2
(g3
(I0
tp7886
g5
tp7887
Rp7888
(I1
(I1
tp7889
g12
I00
S'\xb9\x8e\xec\x86\xa6B\x93A'
p7890
tp7891
bsS'443'
p7892
g2
(g3
(I0
tp7893
g5
tp7894
Rp7895
(I1
(I1
tp7896
g12
I00
S'\xa6-\xe7\x93\xd0\xa2\x87A'
p7897
tp7898
bsS'442'
p7899
g2
(g3
(I0
tp7900
g5
tp7901
Rp7902
(I1
(I1
tp7903
g12
I00
S'b\x85\xd8\xc7\x08p\x86A'
p7904
tp7905
bsS'440'
p7906
g2
(g3
(I0
tp7907
g5
tp7908
Rp7909
(I1
(I1
tp7910
g12
I00
S'\xa8\x03|\x9a\xd5\x12\x98A'
p7911
tp7912
bsS'1330'
p7913
g2
(g3
(I0
tp7914
g5
tp7915
Rp7916
(I1
(I1
tp7917
g12
I00
S'\xaa\x02C\xe20!\xa6A'
p7918
tp7919
bsS'1333'
p7920
g2
(g3
(I0
tp7921
g5
tp7922
Rp7923
(I1
(I1
tp7924
g12
I00
S'\x8b^{\xc7\xd9\xa0\x94A'
p7925
tp7926
bsS'444'
p7927
g2
(g3
(I0
tp7928
g5
tp7929
Rp7930
(I1
(I1
tp7931
g12
I00
S'\xd1\x8dT)\xa1\xd3\x9bA'
p7932
tp7933
bsS'402'
p7934
g2
(g3
(I0
tp7935
g5
tp7936
Rp7937
(I1
(I1
tp7938
g12
I00
S'\xdc\x14\x17\xec\x93\xcc\x86A'
p7939
tp7940
bsS'1861'
p7941
g2
(g3
(I0
tp7942
g5
tp7943
Rp7944
(I1
(I1
tp7945
g12
I00
S'\x026\xb1\xe5\xdd\xf0iA'
p7946
tp7947
bsS'1860'
p7948
g2
(g3
(I0
tp7949
g5
tp7950
Rp7951
(I1
(I1
tp7952
g12
I00
S'\x026\xb1\xe5\xdd\xf0iA'
p7953
tp7954
bsS'1863'
p7955
g2
(g3
(I0
tp7956
g5
tp7957
Rp7958
(I1
(I1
tp7959
g12
I00
S'\x026\xb1\xe5\xdd\xf0iA'
p7960
tp7961
bsS'1862'
p7962
g2
(g3
(I0
tp7963
g5
tp7964
Rp7965
(I1
(I1
tp7966
g12
I00
S'\x026\xb1\xe5\xdd\xf0iA'
p7967
tp7968
bsS'1865'
p7969
g2
(g3
(I0
tp7970
g5
tp7971
Rp7972
(I1
(I1
tp7973
g12
I00
S'\x026\xb1\xe5\xdd\xf0iA'
p7974
tp7975
bsS'1864'
p7976
g2
(g3
(I0
tp7977
g5
tp7978
Rp7979
(I1
(I1
tp7980
g12
I00
S'\x026\xb1\xe5\xdd\xf0iA'
p7981
tp7982
bsS'1867'
p7983
g2
(g3
(I0
tp7984
g5
tp7985
Rp7986
(I1
(I1
tp7987
g12
I00
S'\x026\xb1\xe5\xdd\xf0iA'
p7988
tp7989
bsS'1866'
p7990
g2
(g3
(I0
tp7991
g5
tp7992
Rp7993
(I1
(I1
tp7994
g12
I00
S'\x026\xb1\xe5\xdd\xf0iA'
p7995
tp7996
bsS'1869'
p7997
g2
(g3
(I0
tp7998
g5
tp7999
Rp8000
(I1
(I1
tp8001
g12
I00
S'\x026\xb1\xe5\xdd\xf0iA'
p8002
tp8003
bsS'1868'
p8004
g2
(g3
(I0
tp8005
g5
tp8006
Rp8007
(I1
(I1
tp8008
g12
I00
S'\x026\xb1\xe5\xdd\xf0iA'
p8009
tp8010
bsS'964'
p8011
g2
(g3
(I0
tp8012
g5
tp8013
Rp8014
(I1
(I1
tp8015
g12
I00
S'\xb2\x90\xf4\xdf\x9e_xA'
p8016
tp8017
bsS'965'
p8018
g2
(g3
(I0
tp8019
g5
tp8020
Rp8021
(I1
(I1
tp8022
g12
I00
S'.\r\\v8Z\x85A'
p8023
tp8024
bsS'966'
p8025
g2
(g3
(I0
tp8026
g5
tp8027
Rp8028
(I1
(I1
tp8029
g12
I00
S'\x84\xca3\xf02_\x92A'
p8030
tp8031
bsS'967'
p8032
g2
(g3
(I0
tp8033
g5
tp8034
Rp8035
(I1
(I1
tp8036
g12
I00
S'\x89+m\x9a\xec-\x8cA'
p8037
tp8038
bsS'960'
p8039
g2
(g3
(I0
tp8040
g5
tp8041
Rp8042
(I1
(I1
tp8043
g12
I00
S'\x93\xbd\x00\xb3\xbe-\x9cA'
p8044
tp8045
bsS'961'
p8046
g2
(g3
(I0
tp8047
g5
tp8048
Rp8049
(I1
(I1
tp8050
g12
I00
S'3n\xf66r\xde\x80A'
p8051
tp8052
bsS'962'
p8053
g2
(g3
(I0
tp8054
g5
tp8055
Rp8056
(I1
(I1
tp8057
g12
I00
S'\x93\x1f\x8f\x1c\xd3\xf8\x94A'
p8058
tp8059
bsS'963'
p8060
g2
(g3
(I0
tp8061
g5
tp8062
Rp8063
(I1
(I1
tp8064
g12
I00
S'\x1b\x0c\x8b\xb2L\xb5\x9dA'
p8065
tp8066
bsS'968'
p8067
g2
(g3
(I0
tp8068
g5
tp8069
Rp8070
(I1
(I1
tp8071
g12
I00
S'\xefV-\x83\xdeL\xa2A'
p8072
tp8073
bsS'969'
p8074
g2
(g3
(I0
tp8075
g5
tp8076
Rp8077
(I1
(I1
tp8078
g12
I00
S'\x93\xb4\x1e||\xec\x9aA'
p8079
tp8080
bsS'286'
p8081
g2
(g3
(I0
tp8082
g5
tp8083
Rp8084
(I1
(I1
tp8085
g12
I00
S'\x8eQak\x16riA'
p8086
tp8087
bsS'400'
p8088
g2
(g3
(I0
tp8089
g5
tp8090
Rp8091
(I1
(I1
tp8092
g12
I00
S'\xe0\xe9\xc4\x10\xa0)cA'
p8093
tp8094
bsS'641'
p8095
g2
(g3
(I0
tp8096
g5
tp8097
Rp8098
(I1
(I1
tp8099
g12
I00
S'\xb1\x14\xfd\x8b\xce\xebbA'
p8100
tp8101
bsS'878'
p8102
g2
(g3
(I0
tp8103
g5
tp8104
Rp8105
(I1
(I1
tp8106
g12
I00
S'\x84\x1c\x13K\xbf\x94\x87A'
p8107
tp8108
bsS'879'
p8109
g2
(g3
(I0
tp8110
g5
tp8111
Rp8112
(I1
(I1
tp8113
g12
I00
S'lnax+fqA'
p8114
tp8115
bsS'876'
p8116
g2
(g3
(I0
tp8117
g5
tp8118
Rp8119
(I1
(I1
tp8120
g12
I00
S'\xa9B/V\x1dM\x92A'
p8121
tp8122
bsS'874'
p8123
g2
(g3
(I0
tp8124
g5
tp8125
Rp8126
(I1
(I1
tp8127
g12
I00
S'\xa2\xe5\x9ar\x97K\xa0A'
p8128
tp8129
bsS'875'
p8130
g2
(g3
(I0
tp8131
g5
tp8132
Rp8133
(I1
(I1
tp8134
g12
I00
S'\x9d`\xd0>\x8c\x9f\x94A'
p8135
tp8136
bsS'872'
p8137
g2
(g3
(I0
tp8138
g5
tp8139
Rp8140
(I1
(I1
tp8141
g12
I00
S'Y6;\xe0O\xdc\x92A'
p8142
tp8143
bsS'1535'
p8144
g2
(g3
(I0
tp8145
g5
tp8146
Rp8147
(I1
(I1
tp8148
g12
I00
S'E\xd5B\xdbM\x9e\x95A'
p8149
tp8150
bsS'870'
p8151
g2
(g3
(I0
tp8152
g5
tp8153
Rp8154
(I1
(I1
tp8155
g12
I00
S'\xc2\xc0\xe5^\x81\xc0\x82A'
p8156
tp8157
bsS'871'
p8158
g2
(g3
(I0
tp8159
g5
tp8160
Rp8161
(I1
(I1
tp8162
g12
I00
S'\x7f\xcem\xb4e\xce\x94A'
p8163
tp8164
bsS'642'
p8165
g2
(g3
(I0
tp8166
g5
tp8167
Rp8168
(I1
(I1
tp8169
g12
I00
S'\xf8+\xc9\xf3^\x07\x8fA'
p8170
tp8171
bsS'9'
p8172
g2
(g3
(I0
tp8173
g5
tp8174
Rp8175
(I1
(I1
tp8176
g12
I00
S'\x9dZkq\tN\xa5A'
p8177
tp8178
bsS'1533'
p8179
g2
(g3
(I0
tp8180
g5
tp8181
Rp8182
(I1
(I1
tp8183
g12
I00
S'\xef7\x18\xa9\xc0\x13\x9aA'
p8184
tp8185
bsS'1532'
p8186
g2
(g3
(I0
tp8187
g5
tp8188
Rp8189
(I1
(I1
tp8190
g12
I00
S'\xe1\t\xffr\x96d\x94A'
p8191
tp8192
bsS'892'
p8193
g2
(g3
(I0
tp8194
g5
tp8195
Rp8196
(I1
(I1
tp8197
g12
I00
S'Z\xe9\x89\xbb\x84\x18\x85A'
p8198
tp8199
bsS'893'
p8200
g2
(g3
(I0
tp8201
g5
tp8202
Rp8203
(I1
(I1
tp8204
g12
I00
S'n\xe5\xe8)\x8a\xff\xaeA'
p8205
tp8206
bsS'894'
p8207
g2
(g3
(I0
tp8208
g5
tp8209
Rp8210
(I1
(I1
tp8211
g12
I00
S'v\xe0\xea\xfbj\xd9\x8dA'
p8212
tp8213
bsS'895'
p8214
g2
(g3
(I0
tp8215
g5
tp8216
Rp8217
(I1
(I1
tp8218
g12
I00
S'[\xe7\xeePBi\x97A'
p8219
tp8220
bsS'897'
p8221
g2
(g3
(I0
tp8222
g5
tp8223
Rp8224
(I1
(I1
tp8225
g12
I00
S'\xae\xfe`\xfcw\x96\x8bA'
p8226
tp8227
bsS'898'
p8228
g2
(g3
(I0
tp8229
g5
tp8230
Rp8231
(I1
(I1
tp8232
g12
I00
S'Lw\x991\xf2\xabbA'
p8233
tp8234
bsS'899'
p8235
g2
(g3
(I0
tp8236
g5
tp8237
Rp8238
(I1
(I1
tp8239
g12
I00
S'\xe0\r\xb8Q\x7f\xfe\x90A'
p8240
tp8241
bsS'1530'
p8242
g2
(g3
(I0
tp8243
g5
tp8244
Rp8245
(I1
(I1
tp8246
g12
I00
S'wN\x97u\xf4\x8f\x96A'
p8247
tp8248
bsS'649'
p8249
g2
(g3
(I0
tp8250
g5
tp8251
Rp8252
(I1
(I1
tp8253
g12
I00
S'\x8e\r\x90\xa4\xe8\xb2\x88A'
p8254
tp8255
bsS'1248'
p8256
g2
(g3
(I0
tp8257
g5
tp8258
Rp8259
(I1
(I1
tp8260
g12
I00
S'\x90\xead\xe5\xc9\x1a\xa2A'
p8261
tp8262
bsS'1788'
p8263
g2
(g3
(I0
tp8264
g5
tp8265
Rp8266
(I1
(I1
tp8267
g12
I00
S'\x026\xb1\xe5\xdd\xf0iA'
p8268
tp8269
bsS'1789'
p8270
g2
(g3
(I0
tp8271
g5
tp8272
Rp8273
(I1
(I1
tp8274
g12
I00
S'\x026\xb1\xe5\xdd\xf0iA'
p8275
tp8276
bsS'768'
p8277
g2
(g3
(I0
tp8278
g5
tp8279
Rp8280
(I1
(I1
tp8281
g12
I00
S'8j\xe0\x96S\xa4\x95A'
p8282
tp8283
bsS'769'
p8284
g2
(g3
(I0
tp8285
g5
tp8286
Rp8287
(I1
(I1
tp8288
g12
I00
S'_\x13\xc4\x9d\xa7O\x89A'
p8289
tp8290
bsS'265'
p8291
g2
(g3
(I0
tp8292
g5
tp8293
Rp8294
(I1
(I1
tp8295
g12
I00
S'.~^\xa2\xca\xd2\x84A'
p8296
tp8297
bsS'1780'
p8298
g2
(g3
(I0
tp8299
g5
tp8300
Rp8301
(I1
(I1
tp8302
g12
I00
S'\x026\xb1\xe5\xdd\xf0iA'
p8303
tp8304
bsS'1781'
p8305
g2
(g3
(I0
tp8306
g5
tp8307
Rp8308
(I1
(I1
tp8309
g12
I00
S'\x026\xb1\xe5\xdd\xf0iA'
p8310
tp8311
bsS'760'
p8312
g2
(g3
(I0
tp8313
g5
tp8314
Rp8315
(I1
(I1
tp8316
g12
I00
S'\xa8\x89\xda\x9b\xa0\x0e\x9fA'
p8317
tp8318
bsS'1783'
p8319
g2
(g3
(I0
tp8320
g5
tp8321
Rp8322
(I1
(I1
tp8323
g12
I00
S'\x026\xb1\xe5\xdd\xf0iA'
p8324
tp8325
bsS'1784'
p8326
g2
(g3
(I0
tp8327
g5
tp8328
Rp8329
(I1
(I1
tp8330
g12
I00
S'\x026\xb1\xe5\xdd\xf0iA'
p8331
tp8332
bsS'767'
p8333
g2
(g3
(I0
tp8334
g5
tp8335
Rp8336
(I1
(I1
tp8337
g12
I00
S'\x97\xd3\xc7Xb\xd3\x93A'
p8338
tp8339
bsS'764'
p8340
g2
(g3
(I0
tp8341
g5
tp8342
Rp8343
(I1
(I1
tp8344
g12
I00
S'\x90[\xb2$\x99h\x98A'
p8345
tp8346
bsS'1787'
p8347
g2
(g3
(I0
tp8348
g5
tp8349
Rp8350
(I1
(I1
tp8351
g12
I00
S'\x026\xb1\xe5\xdd\xf0iA'
p8352
tp8353
bsS'1078'
p8354
g2
(g3
(I0
tp8355
g5
tp8356
Rp8357
(I1
(I1
tp8358
g12
I00
S'\x02\x8fKGC3\x96A'
p8359
tp8360
bsS'1079'
p8361
g2
(g3
(I0
tp8362
g5
tp8363
Rp8364
(I1
(I1
tp8365
g12
I00
S' \xbc\xaa\xccN\x8dtA'
p8366
tp8367
bsS'1076'
p8368
g2
(g3
(I0
tp8369
g5
tp8370
Rp8371
(I1
(I1
tp8372
g12
I00
S'\x87\xdc\x1c\xb92\xb0\x97A'
p8373
tp8374
bsS'1077'
p8375
g2
(g3
(I0
tp8376
g5
tp8377
Rp8378
(I1
(I1
tp8379
g12
I00
S'r\xf0\x1f\xab\x03\xa1\x93A'
p8380
tp8381
bsS'1075'
p8382
g2
(g3
(I0
tp8383
g5
tp8384
Rp8385
(I1
(I1
tp8386
g12
I00
S'K<`\xe1\x19V\x99A'
p8387
tp8388
bsS'1072'
p8389
g2
(g3
(I0
tp8390
g5
tp8391
Rp8392
(I1
(I1
tp8393
g12
I00
S'BE?Wn\xa3\x83A'
p8394
tp8395
bsS'1073'
p8396
g2
(g3
(I0
tp8397
g5
tp8398
Rp8399
(I1
(I1
tp8400
g12
I00
S'\x90}a\xcb\x00\xa0yA'
p8401
tp8402
bsS'1070'
p8403
g2
(g3
(I0
tp8404
g5
tp8405
Rp8406
(I1
(I1
tp8407
g12
I00
S'>\xda\x15m\x08\xc5\x86A'
p8408
tp8409
bsS'1071'
p8410
g2
(g3
(I0
tp8411
g5
tp8412
Rp8413
(I1
(I1
tp8414
g12
I00
S'x\xcfZ@\xefo\x95A'
p8415
tp8416
bsS'1678'
p8417
g2
(g3
(I0
tp8418
g5
tp8419
Rp8420
(I1
(I1
tp8421
g12
I00
S'\xa0B\xb32\xd5\xcc\x8dA'
p8422
tp8423
bsS'1679'
p8424
g2
(g3
(I0
tp8425
g5
tp8426
Rp8427
(I1
(I1
tp8428
g12
I00
S'\xbfDQ\xf98\x1c\xa0A'
p8429
tp8430
bsS'1674'
p8431
g2
(g3
(I0
tp8432
g5
tp8433
Rp8434
(I1
(I1
tp8435
g12
I00
S'=\xd2g\xa0\xcd:\xa0A'
p8436
tp8437
bsS'1675'
p8438
g2
(g3
(I0
tp8439
g5
tp8440
Rp8441
(I1
(I1
tp8442
g12
I00
S'#\xdc\x9b\xa9\x90\xb0\x8fA'
p8443
tp8444
bsS'1676'
p8445
g2
(g3
(I0
tp8446
g5
tp8447
Rp8448
(I1
(I1
tp8449
g12
I00
S'\xca:\xdb\x17\xfd\x97\xa4A'
p8450
tp8451
bsS'1677'
p8452
g2
(g3
(I0
tp8453
g5
tp8454
Rp8455
(I1
(I1
tp8456
g12
I00
S'-4EzB\xdfbA'
p8457
tp8458
bsS'1671'
p8459
g2
(g3
(I0
tp8460
g5
tp8461
Rp8462
(I1
(I1
tp8463
g12
I00
S'\x81\x80\x11\x96\xcf\x10\x93A'
p8464
tp8465
bsS'1672'
p8466
g2
(g3
(I0
tp8467
g5
tp8468
Rp8469
(I1
(I1
tp8470
g12
I00
S'S7\xb7M\xf5q\x9bA'
p8471
tp8472
bsS'1673'
p8473
g2
(g3
(I0
tp8474
g5
tp8475
Rp8476
(I1
(I1
tp8477
g12
I00
S'\xec*\xc7<Z\xfb\x8aA'
p8478
tp8479
bsS'1094'
p8480
g2
(g3
(I0
tp8481
g5
tp8482
Rp8483
(I1
(I1
tp8484
g12
I00
S"'\x0e\x11\xc0\xd4\x1erA"
p8485
tp8486
bsS'1095'
p8487
g2
(g3
(I0
tp8488
g5
tp8489
Rp8490
(I1
(I1
tp8491
g12
I00
S'!\xe4\x92!\xe7x\x95A'
p8492
tp8493
bsS'1096'
p8494
g2
(g3
(I0
tp8495
g5
tp8496
Rp8497
(I1
(I1
tp8498
g12
I00
S'\xe1\xc6\xc0\xf3\xfd#\x98A'
p8499
tp8500
bsS'1097'
p8501
g2
(g3
(I0
tp8502
g5
tp8503
Rp8504
(I1
(I1
tp8505
g12
I00
S'\xfc\xd1\xd3\xde\x12X\x85A'
p8506
tp8507
bsS'678'
p8508
g2
(g3
(I0
tp8509
g5
tp8510
Rp8511
(I1
(I1
tp8512
g12
I00
S'\xeec\x0c\xa8\n\x88}A'
p8513
tp8514
bsS'679'
p8515
g2
(g3
(I0
tp8516
g5
tp8517
Rp8518
(I1
(I1
tp8519
g12
I00
S'2!\x8b\xbd\xbf;UA'
p8520
tp8521
bsS'1092'
p8522
g2
(g3
(I0
tp8523
g5
tp8524
Rp8525
(I1
(I1
tp8526
g12
I00
S'\x14a\xe9\xe3F\xed~A'
p8527
tp8528
bsS'1534'
p8529
g2
(g3
(I0
tp8530
g5
tp8531
Rp8532
(I1
(I1
tp8533
g12
I00
S'\xc5m\xf56\xe2u\x9fA'
p8534
tp8535
bsS'674'
p8536
g2
(g3
(I0
tp8537
g5
tp8538
Rp8539
(I1
(I1
tp8540
g12
I00
S'\x8a\xc3\xfa\x7f\x19\xc9}A'
p8541
tp8542
bsS'675'
p8543
g2
(g3
(I0
tp8544
g5
tp8545
Rp8546
(I1
(I1
tp8547
g12
I00
S'\x01\x0f^O\xd7>\x93A'
p8548
tp8549
bsS'677'
p8550
g2
(g3
(I0
tp8551
g5
tp8552
Rp8553
(I1
(I1
tp8554
g12
I00
S':DM\xa3KO\x89A'
p8555
tp8556
bsS'670'
p8557
g2
(g3
(I0
tp8558
g5
tp8559
Rp8560
(I1
(I1
tp8561
g12
I00
S'\x1b\x87\xb4\xf8|\x8d\x9aA'
p8562
tp8563
bsS'1099'
p8564
g2
(g3
(I0
tp8565
g5
tp8566
Rp8567
(I1
(I1
tp8568
g12
I00
S'\xfc&\xc61\xa1\x8eqA'
p8569
tp8570
bsS'672'
p8571
g2
(g3
(I0
tp8572
g5
tp8573
Rp8574
(I1
(I1
tp8575
g12
I00
S'pvV\xb5H\xc2wA'
p8576
tp8577
bsS'673'
p8578
g2
(g3
(I0
tp8579
g5
tp8580
Rp8581
(I1
(I1
tp8582
g12
I00
S'6\x1fz\xa3\x19d~A'
p8583
tp8584
bsS'645'
p8585
g2
(g3
(I0
tp8586
g5
tp8587
Rp8588
(I1
(I1
tp8589
g12
I00
S'\xbd\x82~@\xba\xb3\x8fA'
p8590
tp8591
bsS'1418'
p8592
g2
(g3
(I0
tp8593
g5
tp8594
Rp8595
(I1
(I1
tp8596
g12
I00
S'\xcc\xb2\x03\xc6\x0b\xff\xa3A'
p8597
tp8598
bsS'1419'
p8599
g2
(g3
(I0
tp8600
g5
tp8601
Rp8602
(I1
(I1
tp8603
g12
I00
S'Q\xf3\xc8(\xaaE\x89A'
p8604
tp8605
bsS'1410'
p8606
g2
(g3
(I0
tp8607
g5
tp8608
Rp8609
(I1
(I1
tp8610
g12
I00
S'N\xdcu\xa7+\xf0|A'
p8611
tp8612
bsS'1411'
p8613
g2
(g3
(I0
tp8614
g5
tp8615
Rp8616
(I1
(I1
tp8617
g12
I00
S'\x99wr7c\x1b\x8eA'
p8618
tp8619
bsS'1412'
p8620
g2
(g3
(I0
tp8621
g5
tp8622
Rp8623
(I1
(I1
tp8624
g12
I00
S"\xb4'xH\x00\x12\x95A"
p8625
tp8626
bsS'1413'
p8627
g2
(g3
(I0
tp8628
g5
tp8629
Rp8630
(I1
(I1
tp8631
g12
I00
S'\xa8\xcd\xf0\xa5\xb6\xaa\xa5A'
p8632
tp8633
bsS'1414'
p8634
g2
(g3
(I0
tp8635
g5
tp8636
Rp8637
(I1
(I1
tp8638
g12
I00
S'v\xcf\xe4\xb6f\xbd\xadA'
p8639
tp8640
bsS'1415'
p8641
g2
(g3
(I0
tp8642
g5
tp8643
Rp8644
(I1
(I1
tp8645
g12
I00
S'\x07\xd3G\xf0\xe9\x96\x91A'
p8646
tp8647
bsS'1416'
p8648
g2
(g3
(I0
tp8649
g5
tp8650
Rp8651
(I1
(I1
tp8652
g12
I00
S'E&hf\x0cy\xa0A'
p8653
tp8654
bsS'1417'
p8655
g2
(g3
(I0
tp8656
g5
tp8657
Rp8658
(I1
(I1
tp8659
g12
I00
S'\xe0\xa2\xcbY\xc6\x10\x89A'
p8660
tp8661
bsS'1322'
p8662
g2
(g3
(I0
tp8663
g5
tp8664
Rp8665
(I1
(I1
tp8666
g12
I00
S'\x84\xc0Q\xa9`\xc9aA'
p8667
tp8668
bsS'1323'
p8669
g2
(g3
(I0
tp8670
g5
tp8671
Rp8672
(I1
(I1
tp8673
g12
I00
S'\xe6\xb3\x89\xd7\xc4\\\xa0A'
p8674
tp8675
bsS'1320'
p8676
g2
(g3
(I0
tp8677
g5
tp8678
Rp8679
(I1
(I1
tp8680
g12
I00
S'\xa2k\n\x9ct>\x9dA'
p8681
tp8682
bsS'644'
p8683
g2
(g3
(I0
tp8684
g5
tp8685
Rp8686
(I1
(I1
tp8687
g12
I00
S'V\xdaA\x93{\xe5wA'
p8688
tp8689
bsS'1326'
p8690
g2
(g3
(I0
tp8691
g5
tp8692
Rp8693
(I1
(I1
tp8694
g12
I00
S'\xab\x0bJc\xf0\xa4\x93A'
p8695
tp8696
bsS'1327'
p8697
g2
(g3
(I0
tp8698
g5
tp8699
Rp8700
(I1
(I1
tp8701
g12
I00
S'\xc7\xee\\\xd7?\x8c\xa8A'
p8702
tp8703
bsS'1324'
p8704
g2
(g3
(I0
tp8705
g5
tp8706
Rp8707
(I1
(I1
tp8708
g12
I00
S'\xf9\xe1\x19\xe7\xe9\xa7\x99A'
p8709
tp8710
bsS'1325'
p8711
g2
(g3
(I0
tp8712
g5
tp8713
Rp8714
(I1
(I1
tp8715
g12
I00
S'o\xb2\x10\xe2}\xcc\xa5A'
p8716
tp8717
bsS'1329'
p8718
g2
(g3
(I0
tp8719
g5
tp8720
Rp8721
(I1
(I1
tp8722
g12
I00
S'\x1d"\xf2\xbb\xb7l\x97A'
p8723
tp8724
bsS'1531'
p8725
g2
(g3
(I0
tp8726
g5
tp8727
Rp8728
(I1
(I1
tp8729
g12
I00
S'@$\xf7\x18Z\xee\x89A'
p8730
tp8731
bsS'1524'
p8732
g2
(g3
(I0
tp8733
g5
tp8734
Rp8735
(I1
(I1
tp8736
g12
I00
S"\xd1\x86\xb9\xd8'\xe7\x97A"
p8737
tp8738
bsS'1257'
p8739
g2
(g3
(I0
tp8740
g5
tp8741
Rp8742
(I1
(I1
tp8743
g12
I00
S'\x119\xc0(\x1c\xc6\x88A'
p8744
tp8745
bsS'1254'
p8746
g2
(g3
(I0
tp8747
g5
tp8748
Rp8749
(I1
(I1
tp8750
g12
I00
S'\x16\x0b\x82\xd0\x91\xf5\x87A'
p8751
tp8752
bsS'1255'
p8753
g2
(g3
(I0
tp8754
g5
tp8755
Rp8756
(I1
(I1
tp8757
g12
I00
S'$\xe3\xd3\xab\x97v\x84A'
p8758
tp8759
bsS'1520'
p8760
g2
(g3
(I0
tp8761
g5
tp8762
Rp8763
(I1
(I1
tp8764
g12
I00
S'\x83ld\xeef\x0f\xa3A'
p8765
tp8766
bsS'1521'
p8767
g2
(g3
(I0
tp8768
g5
tp8769
Rp8770
(I1
(I1
tp8771
g12
I00
S'\xe7\xcd\x1f\xd9\x87O\x90A'
p8772
tp8773
bsS'1250'
p8774
g2
(g3
(I0
tp8775
g5
tp8776
Rp8777
(I1
(I1
tp8778
g12
I00
S'_!\xf0ix\xa4\x9aA'
p8779
tp8780
bsS'1251'
p8781
g2
(g3
(I0
tp8782
g5
tp8783
Rp8784
(I1
(I1
tp8785
g12
I00
S'\xf0\xfe\x92\xd7!\xe9\x92A'
p8786
tp8787
bsS'1528'
p8788
g2
(g3
(I0
tp8789
g5
tp8790
Rp8791
(I1
(I1
tp8792
g12
I00
S'J\xb8\xf7\xb9\xe1\xf4\x85A'
p8793
tp8794
bsS'1529'
p8795
g2
(g3
(I0
tp8796
g5
tp8797
Rp8798
(I1
(I1
tp8799
g12
I00
S'\x05\xca_\\\x84!\x93A'
p8800
tp8801
bsS'1258'
p8802
g2
(g3
(I0
tp8803
g5
tp8804
Rp8805
(I1
(I1
tp8806
g12
I00
S'\xecB\xeb\xf7\xe3\xe4\x9cA'
p8807
tp8808
bsS'1259'
p8809
g2
(g3
(I0
tp8810
g5
tp8811
Rp8812
(I1
(I1
tp8813
g12
I00
S'\x81\xc4\xb8_\x87\xc2\x9cA'
p8814
tp8815
bsS'308'
p8816
g2
(g3
(I0
tp8817
g5
tp8818
Rp8819
(I1
(I1
tp8820
g12
I00
S'2\x0e^+#J\xaaA'
p8821
tp8822
bsS'309'
p8823
g2
(g3
(I0
tp8824
g5
tp8825
Rp8826
(I1
(I1
tp8827
g12
I00
S'\xd8\xe6\x07\xd9N\xc7dA'
p8828
tp8829
bsS'300'
p8830
g2
(g3
(I0
tp8831
g5
tp8832
Rp8833
(I1
(I1
tp8834
g12
I00
S'~\xdf^\xefy\x06\x9cA'
p8835
tp8836
bsS'302'
p8837
g2
(g3
(I0
tp8838
g5
tp8839
Rp8840
(I1
(I1
tp8841
g12
I00
S'\xac\x93Z\xfc\xc6\xa9eA'
p8842
tp8843
bsS'303'
p8844
g2
(g3
(I0
tp8845
g5
tp8846
Rp8847
(I1
(I1
tp8848
g12
I00
S'\xa8*\xe9\xec\x80;`A'
p8849
tp8850
bsS'304'
p8851
g2
(g3
(I0
tp8852
g5
tp8853
Rp8854
(I1
(I1
tp8855
g12
I00
S'\x84=\xc3E\x90\xef_A'
p8856
tp8857
bsS'305'
p8858
g2
(g3
(I0
tp8859
g5
tp8860
Rp8861
(I1
(I1
tp8862
g12
I00
S'n+\x85\x9c\xd2ozA'
p8863
tp8864
bsS'306'
p8865
g2
(g3
(I0
tp8866
g5
tp8867
Rp8868
(I1
(I1
tp8869
g12
I00
S'\x9cW\xcbRV^\x86A'
p8870
tp8871
bsS'307'
p8872
g2
(g3
(I0
tp8873
g5
tp8874
Rp8875
(I1
(I1
tp8876
g12
I00
S':\xba\xba\xcc\x16\xfc\x8dA'
p8877
tp8878
bsS'473'
p8879
g2
(g3
(I0
tp8880
g5
tp8881
Rp8882
(I1
(I1
tp8883
g12
I00
S'\x04\x06\xd6\x1e\xb5\x04\xa7A'
p8884
tp8885
bsS'959'
p8886
g2
(g3
(I0
tp8887
g5
tp8888
Rp8889
(I1
(I1
tp8890
g12
I00
S'\x03\xa3U\x9f!Q\x94A'
p8891
tp8892
bsS'958'
p8893
g2
(g3
(I0
tp8894
g5
tp8895
Rp8896
(I1
(I1
tp8897
g12
I00
S'\xa2/\xa7\xd8\x7f\xc6xA'
p8898
tp8899
bsS'951'
p8900
g2
(g3
(I0
tp8901
g5
tp8902
Rp8903
(I1
(I1
tp8904
g12
I00
S'\x9eY\x01\xd2\xc8}\x8eA'
p8905
tp8906
bsS'950'
p8907
g2
(g3
(I0
tp8908
g5
tp8909
Rp8910
(I1
(I1
tp8911
g12
I00
S'\x8c\xf5\x93\xbaA\x1c`A'
p8912
tp8913
bsS'953'
p8914
g2
(g3
(I0
tp8915
g5
tp8916
Rp8917
(I1
(I1
tp8918
g12
I00
S'\xd1\xbb\x98\xb1\xda\xe6xA'
p8919
tp8920
bsS'952'
p8921
g2
(g3
(I0
tp8922
g5
tp8923
Rp8924
(I1
(I1
tp8925
g12
I00
S'\xc2\xa1{\x1b&J\xa1A'
p8926
tp8927
bsS'955'
p8928
g2
(g3
(I0
tp8929
g5
tp8930
Rp8931
(I1
(I1
tp8932
g12
I00
S'\xd1\xf1\xfc\t \x05\x96A'
p8933
tp8934
bsS'1267'
p8935
g2
(g3
(I0
tp8936
g5
tp8937
Rp8938
(I1
(I1
tp8939
g12
I00
S'\x8c\xb1\x9a\x1c$"\x81A'
p8940
tp8941
bsS'957'
p8942
g2
(g3
(I0
tp8943
g5
tp8944
Rp8945
(I1
(I1
tp8946
g12
I00
S'XE\xbe\xb2\xae\xcb\x82A'
p8947
tp8948
bsS'956'
p8949
g2
(g3
(I0
tp8950
g5
tp8951
Rp8952
(I1
(I1
tp8953
g12
I00
S'`*\x83&\x0eT\xa7A'
p8954
tp8955
bsS'506'
p8956
g2
(g3
(I0
tp8957
g5
tp8958
Rp8959
(I1
(I1
tp8960
g12
I00
S'\xc1\xcf\xe8\x0b=\xee\x90A'
p8961
tp8962
bsS'1790'
p8963
g2
(g3
(I0
tp8964
g5
tp8965
Rp8966
(I1
(I1
tp8967
g12
I00
S'\x026\xb1\xe5\xdd\xf0iA'
p8968
tp8969
bsS'507'
p8970
g2
(g3
(I0
tp8971
g5
tp8972
Rp8973
(I1
(I1
tp8974
g12
I00
S'|\x06\x08\xd1K@sA'
p8975
tp8976
bsS'667'
p8977
g2
(g3
(I0
tp8978
g5
tp8979
Rp8980
(I1
(I1
tp8981
g12
I00
S'\xa2w\xadn\xbb\x08\x8cA'
p8982
tp8983
bsS'666'
p8984
g2
(g3
(I0
tp8985
g5
tp8986
Rp8987
(I1
(I1
tp8988
g12
I00
S'\xd2b\x08\x88\xe3K\x87A'
p8989
tp8990
bsS'1261'
p8991
g2
(g3
(I0
tp8992
g5
tp8993
Rp8994
(I1
(I1
tp8995
g12
I00
S'\xe9\x0biT47\x90A'
p8996
tp8997
bsS'1799'
p8998
g2
(g3
(I0
tp8999
g5
tp9000
Rp9001
(I1
(I1
tp9002
g12
I00
S'\x026\xb1\xe5\xdd\xf0iA'
p9003
tp9004
bsS'1798'
p9005
g2
(g3
(I0
tp9006
g5
tp9007
Rp9008
(I1
(I1
tp9009
g12
I00
S'\x026\xb1\xe5\xdd\xf0iA'
p9010
tp9011
bsS'719'
p9012
g2
(g3
(I0
tp9013
g5
tp9014
Rp9015
(I1
(I1
tp9016
g12
I00
S'\xda\xefT6\xe7\xc8\x87A'
p9017
tp9018
bsS'718'
p9019
g2
(g3
(I0
tp9020
g5
tp9021
Rp9022
(I1
(I1
tp9023
g12
I00
S'f\xe7\x81j\xa5\xdf\xaeA'
p9024
tp9025
bsS'717'
p9026
g2
(g3
(I0
tp9027
g5
tp9028
Rp9029
(I1
(I1
tp9030
g12
I00
S'\x14\x04bD\xb6\x06\xa9A'
p9031
tp9032
bsS'716'
p9033
g2
(g3
(I0
tp9034
g5
tp9035
Rp9036
(I1
(I1
tp9037
g12
I00
S'\x8a .\x83W\xed\x81A'
p9038
tp9039
bsS'715'
p9040
g2
(g3
(I0
tp9041
g5
tp9042
Rp9043
(I1
(I1
tp9044
g12
I00
S'\x01\xd6@\xebp\x9a\x93A'
p9045
tp9046
bsS'714'
p9047
g2
(g3
(I0
tp9048
g5
tp9049
Rp9050
(I1
(I1
tp9051
g12
I00
S'\x90\x80\x01\x1e\xd5\xae~A'
p9052
tp9053
bsS'713'
p9054
g2
(g3
(I0
tp9055
g5
tp9056
Rp9057
(I1
(I1
tp9058
g12
I00
S'T\x0e\xd2\xbb\x1c\x90\x9bA'
p9059
tp9060
bsS'712'
p9061
g2
(g3
(I0
tp9062
g5
tp9063
Rp9064
(I1
(I1
tp9065
g12
I00
S'\xfd\t\xd7\x1d8\xaf\x99A'
p9066
tp9067
bsS'1795'
p9068
g2
(g3
(I0
tp9069
g5
tp9070
Rp9071
(I1
(I1
tp9072
g12
I00
S'\x026\xb1\xe5\xdd\xf0iA'
p9073
tp9074
bsS'1794'
p9075
g2
(g3
(I0
tp9076
g5
tp9077
Rp9078
(I1
(I1
tp9079
g12
I00
S'\x026\xb1\xe5\xdd\xf0iA'
p9080
tp9081
bsS'661'
p9082
g2
(g3
(I0
tp9083
g5
tp9084
Rp9085
(I1
(I1
tp9086
g12
I00
S'\'\xdcb"\x93\x0c\x8fA'
p9087
tp9088
bsS'1060'
p9089
g2
(g3
(I0
tp9090
g5
tp9091
Rp9092
(I1
(I1
tp9093
g12
I00
S'\xe2#\x9a\x98\r\x96~A'
p9094
tp9095
bsS'1063'
p9096
g2
(g3
(I0
tp9097
g5
tp9098
Rp9099
(I1
(I1
tp9100
g12
I00
S'xovU"\xbcbA'
p9101
tp9102
bsS'1062'
p9103
g2
(g3
(I0
tp9104
g5
tp9105
Rp9106
(I1
(I1
tp9107
g12
I00
S'\xcaH\xff_\xfbG\x86A'
p9108
tp9109
bsS'1065'
p9110
g2
(g3
(I0
tp9111
g5
tp9112
Rp9113
(I1
(I1
tp9114
g12
I00
S'$\xd2FH\xf5S\x8fA'
p9115
tp9116
bsS'1064'
p9117
g2
(g3
(I0
tp9118
g5
tp9119
Rp9120
(I1
(I1
tp9121
g12
I00
S'\xe8\xaa}\xe2\xc3\xe0\x87A'
p9122
tp9123
bsS'1067'
p9124
g2
(g3
(I0
tp9125
g5
tp9126
Rp9127
(I1
(I1
tp9128
g12
I00
S'r:\x13$dx\x94A'
p9129
tp9130
bsS'1066'
p9131
g2
(g3
(I0
tp9132
g5
tp9133
Rp9134
(I1
(I1
tp9135
g12
I00
S'\xcak\xa6\xe8\xf4\xa0\x8eA'
p9136
tp9137
bsS'1669'
p9138
g2
(g3
(I0
tp9139
g5
tp9140
Rp9141
(I1
(I1
tp9142
g12
I00
S'\xc2\xb4\xd4c\n$tA'
p9143
tp9144
bsS'1667'
p9145
g2
(g3
(I0
tp9146
g5
tp9147
Rp9148
(I1
(I1
tp9149
g12
I00
S'\x84:\xf38\xcf5\x97A'
p9150
tp9151
bsS'1666'
p9152
g2
(g3
(I0
tp9153
g5
tp9154
Rp9155
(I1
(I1
tp9156
g12
I00
S'{$\taI\x89\x99A'
p9157
tp9158
bsS'1665'
p9159
g2
(g3
(I0
tp9160
g5
tp9161
Rp9162
(I1
(I1
tp9163
g12
I00
S'M\x89\xf4\x04\xd4\x10\x94A'
p9164
tp9165
bsS'1664'
p9166
g2
(g3
(I0
tp9167
g5
tp9168
Rp9169
(I1
(I1
tp9170
g12
I00
S'\xa4?\x10.\xb9.\xadA'
p9171
tp9172
bsS'1663'
p9173
g2
(g3
(I0
tp9174
g5
tp9175
Rp9176
(I1
(I1
tp9177
g12
I00
S'\xec3\x81uc\xa4\x8dA'
p9178
tp9179
bsS'1662'
p9180
g2
(g3
(I0
tp9181
g5
tp9182
Rp9183
(I1
(I1
tp9184
g12
I00
S'\xad@_\xe9\xd9\x01~A'
p9185
tp9186
bsS'1661'
p9187
g2
(g3
(I0
tp9188
g5
tp9189
Rp9190
(I1
(I1
tp9191
g12
I00
S'\xdf\xc6\xab&d\xf1\xa5A'
p9192
tp9193
bsS'1660'
p9194
g2
(g3
(I0
tp9195
g5
tp9196
Rp9197
(I1
(I1
tp9198
g12
I00
S'|qQ\x1b\xb7a\x94A'
p9199
tp9200
bsS'1087'
p9201
g2
(g3
(I0
tp9202
g5
tp9203
Rp9204
(I1
(I1
tp9205
g12
I00
S'd\x9dx\x96\xbb\xf1uA'
p9206
tp9207
bsS'1086'
p9208
g2
(g3
(I0
tp9209
g5
tp9210
Rp9211
(I1
(I1
tp9212
g12
I00
S'\xae\xef\xbe\xe3\t\x1dbA'
p9213
tp9214
bsS'593'
p9215
g2
(g3
(I0
tp9216
g5
tp9217
Rp9218
(I1
(I1
tp9219
g12
I00
S'\xa3\x97@\xe7\x8e\xa5\x84A'
p9220
tp9221
bsS'592'
p9222
g2
(g3
(I0
tp9223
g5
tp9224
Rp9225
(I1
(I1
tp9226
g12
I00
S'\x86TY\xb8\xca0cA'
p9227
tp9228
bsS'595'
p9229
g2
(g3
(I0
tp9230
g5
tp9231
Rp9232
(I1
(I1
tp9233
g12
I00
S"\x04\x8f\xc2'\xedQ\x83A"
p9234
tp9235
bsS'594'
p9236
g2
(g3
(I0
tp9237
g5
tp9238
Rp9239
(I1
(I1
tp9240
g12
I00
S'd\xe7n\x9bl\xc0\x85A'
p9241
tp9242
bsS'1081'
p9243
g2
(g3
(I0
tp9244
g5
tp9245
Rp9246
(I1
(I1
tp9247
g12
I00
S'\x97X\xd9\x1eP\xb0qA'
p9248
tp9249
bsS'596'
p9250
g2
(g3
(I0
tp9251
g5
tp9252
Rp9253
(I1
(I1
tp9254
g12
I00
S'M\xdc\xce\x9f\x04\x12\x95A'
p9255
tp9256
bsS'599'
p9257
g2
(g3
(I0
tp9258
g5
tp9259
Rp9260
(I1
(I1
tp9261
g12
I00
S',\xf1$x\xd5\xc2aA'
p9262
tp9263
bsS'598'
p9264
g2
(g3
(I0
tp9265
g5
tp9266
Rp9267
(I1
(I1
tp9268
g12
I00
S'\x86\xe9z\xa2\xed\n\x9bA'
p9269
tp9270
bsS'1089'
p9271
g2
(g3
(I0
tp9272
g5
tp9273
Rp9274
(I1
(I1
tp9275
g12
I00
S'\xa8\x81\x92r\xdf\xd4\x80A'
p9276
tp9277
bsS'1088'
p9278
g2
(g3
(I0
tp9279
g5
tp9280
Rp9281
(I1
(I1
tp9282
g12
I00
S']\x0f\xfc\xdf\x03\x81\x89A'
p9283
tp9284
bsS'1403'
p9285
g2
(g3
(I0
tp9286
g5
tp9287
Rp9288
(I1
(I1
tp9289
g12
I00
S'5\xa6\xa4\xc4\x00b\x9dA'
p9290
tp9291
bsS'1402'
p9292
g2
(g3
(I0
tp9293
g5
tp9294
Rp9295
(I1
(I1
tp9296
g12
I00
S'\xed/N\xa7\x9dFbA'
p9297
tp9298
bsS'1401'
p9299
g2
(g3
(I0
tp9300
g5
tp9301
Rp9302
(I1
(I1
tp9303
g12
I00
S'\xe1\x88"\x1a\x05\x01\x93A'
p9304
tp9305
bsS'1407'
p9306
g2
(g3
(I0
tp9307
g5
tp9308
Rp9309
(I1
(I1
tp9310
g12
I00
S'Bk\xa6\x94\x12\xa2\x7fA'
p9311
tp9312
bsS'1406'
p9313
g2
(g3
(I0
tp9314
g5
tp9315
Rp9316
(I1
(I1
tp9317
g12
I00
S'S),\x81\x05\xc3\x88A'
p9318
tp9319
bsS'1405'
p9320
g2
(g3
(I0
tp9321
g5
tp9322
Rp9323
(I1
(I1
tp9324
g12
I00
S'\x9c\xdc\x00B\x18\xe1\xa2A'
p9325
tp9326
bsS'1404'
p9327
g2
(g3
(I0
tp9328
g5
tp9329
Rp9330
(I1
(I1
tp9331
g12
I00
S'\x99\x0c\xcb\x97d,[A'
p9332
tp9333
bsS'1546'
p9334
g2
(g3
(I0
tp9335
g5
tp9336
Rp9337
(I1
(I1
tp9338
g12
I00
S'\xc0\x84\xbc\xb1En_A'
p9339
tp9340
bsS'449'
p9341
g2
(g3
(I0
tp9342
g5
tp9343
Rp9344
(I1
(I1
tp9345
g12
I00
S'\xd9\xbc\x9c\xbd\x1fP\x9aA'
p9346
tp9347
bsS'1339'
p9348
g2
(g3
(I0
tp9349
g5
tp9350
Rp9351
(I1
(I1
tp9352
g12
I00
S'm\x0e5\xfc\xe5\xea\x85A'
p9353
tp9354
bsS'1547'
p9355
g2
(g3
(I0
tp9356
g5
tp9357
Rp9358
(I1
(I1
tp9359
g12
I00
S'tI\xa7\x08\xd4\xb9\x96A'
p9360
tp9361
bsS'1335'
p9362
g2
(g3
(I0
tp9363
g5
tp9364
Rp9365
(I1
(I1
tp9366
g12
I00
S'0"\xed\xf2\xfa\xcdpA'
p9367
tp9368
bsS'1334'
p9369
g2
(g3
(I0
tp9370
g5
tp9371
Rp9372
(I1
(I1
tp9373
g12
I00
S'\x80\xb2#9.\xc2\x8cA'
p9374
tp9375
bsS'441'
p9376
g2
(g3
(I0
tp9377
g5
tp9378
Rp9379
(I1
(I1
tp9380
g12
I00
S'pg\xe0\xc6\x0e\xfd\x85A'
p9381
tp9382
bsS'1336'
p9383
g2
(g3
(I0
tp9384
g5
tp9385
Rp9386
(I1
(I1
tp9387
g12
I00
S'#\xad\x87~\xb1\\dA'
p9388
tp9389
bsS'447'
p9390
g2
(g3
(I0
tp9391
g5
tp9392
Rp9393
(I1
(I1
tp9394
g12
I00
S'\x83@\xa9C\x83;\x81A'
p9395
tp9396
bsS'1544'
p9397
g2
(g3
(I0
tp9398
g5
tp9399
Rp9400
(I1
(I1
tp9401
g12
I00
S'\xdb\xe55\xe0\xf3p\x99A'
p9402
tp9403
bsS'445'
p9404
g2
(g3
(I0
tp9405
g5
tp9406
Rp9407
(I1
(I1
tp9408
g12
I00
S'8M0\xfc\xf7\xb9|A'
p9409
tp9410
bsS'1332'
p9411
g2
(g3
(I0
tp9412
g5
tp9413
Rp9414
(I1
(I1
tp9415
g12
I00
S'\xb1\xef\x06h\xfbHdA'
p9416
tp9417
bsS'1545'
p9418
g2
(g3
(I0
tp9419
g5
tp9420
Rp9421
(I1
(I1
tp9422
g12
I00
S'X\x9b\xc2\x0eL\xc2\x90A'
p9423
tp9424
bsS'697'
p9425
g2
(g3
(I0
tp9426
g5
tp9427
Rp9428
(I1
(I1
tp9429
g12
I00
S'\xa4\x14\x97D\t\x8a\x92A'
p9430
tp9431
bsS'39'
p9432
g2
(g3
(I0
tp9433
g5
tp9434
Rp9435
(I1
(I1
tp9436
g12
I00
S'\xc3\x81y-\x84:\x9aA'
p9437
tp9438
bsS'38'
p9439
g2
(g3
(I0
tp9440
g5
tp9441
Rp9442
(I1
(I1
tp9443
g12
I00
S"\xc9\xa1\xe9\xfb\xed'\x9fA"
p9444
tp9445
bsS'1540'
p9446
g2
(g3
(I0
tp9447
g5
tp9448
Rp9449
(I1
(I1
tp9450
g12
I00
S'#1\x17\x1d\xe3\x99\xadA'
p9451
tp9452
bsS'33'
p9453
g2
(g3
(I0
tp9454
g5
tp9455
Rp9456
(I1
(I1
tp9457
g12
I00
S'\xf7\xfd\xc9[\x8e\x8b\x9bA'
p9458
tp9459
bsS'32'
p9460
g2
(g3
(I0
tp9461
g5
tp9462
Rp9463
(I1
(I1
tp9464
g12
I00
S'\xb7\xb6G\xa2*\x9c\xa4A'
p9465
tp9466
bsS'31'
p9467
g2
(g3
(I0
tp9468
g5
tp9469
Rp9470
(I1
(I1
tp9471
g12
I00
S'0\xed\xfc\x0b\xec\x18bA'
p9472
tp9473
bsS'30'
p9474
g2
(g3
(I0
tp9475
g5
tp9476
Rp9477
(I1
(I1
tp9478
g12
I00
S'r[\xf0A\xedc\x85A'
p9479
tp9480
bsS'37'
p9481
g2
(g3
(I0
tp9482
g5
tp9483
Rp9484
(I1
(I1
tp9485
g12
I00
S'\x96\xb2\xc5\xcb \xcf\xa1A'
p9486
tp9487
bsS'36'
p9488
g2
(g3
(I0
tp9489
g5
tp9490
Rp9491
(I1
(I1
tp9492
g12
I00
S'k\x9bx\x0f\x9d=\x88A'
p9493
tp9494
bsS'35'
p9495
g2
(g3
(I0
tp9496
g5
tp9497
Rp9498
(I1
(I1
tp9499
g12
I00
S'\xf30\xe8\x9b\x95A\x9bA'
p9500
tp9501
bsS'34'
p9502
g2
(g3
(I0
tp9503
g5
tp9504
Rp9505
(I1
(I1
tp9506
g12
I00
S'x\xa0\x8e\xf7\x12\x1e\xa0A'
p9507
tp9508
bsS'1537'
p9509
g2
(g3
(I0
tp9510
g5
tp9511
Rp9512
(I1
(I1
tp9513
g12
I00
S'\x82\x12\x8b#\x9c\x97\xaeA'
p9514
tp9515
bsS'1536'
p9516
g2
(g3
(I0
tp9517
g5
tp9518
Rp9519
(I1
(I1
tp9520
g12
I00
S'G*f`\xcf\x05RA'
p9521
tp9522
bsS'1243'
p9523
g2
(g3
(I0
tp9524
g5
tp9525
Rp9526
(I1
(I1
tp9527
g12
I00
S'\xb7\xd9\xfd\xb7\xf7\x1b\x91A'
p9528
tp9529
bsS'1242'
p9530
g2
(g3
(I0
tp9531
g5
tp9532
Rp9533
(I1
(I1
tp9534
g12
I00
S'-\xaf\xffM\xca\xc2tA'
p9535
tp9536
bsS'1245'
p9537
g2
(g3
(I0
tp9538
g5
tp9539
Rp9540
(I1
(I1
tp9541
g12
I00
S'\xbf\xcb5\x8e\x12\x15\x92A'
p9542
tp9543
bsS'1244'
p9544
g2
(g3
(I0
tp9545
g5
tp9546
Rp9547
(I1
(I1
tp9548
g12
I00
S'\tU\xbcb_\x99\xa2A'
p9549
tp9550
bsS'1247'
p9551
g2
(g3
(I0
tp9552
g5
tp9553
Rp9554
(I1
(I1
tp9555
g12
I00
S'P9X\x88N\x95\x9cA'
p9556
tp9557
bsS'646'
p9558
g2
(g3
(I0
tp9559
g5
tp9560
Rp9561
(I1
(I1
tp9562
g12
I00
S'\xc5\xf2\x95\xdd\xed<\x9dA'
p9563
tp9564
bsS'1249'
p9565
g2
(g3
(I0
tp9566
g5
tp9567
Rp9568
(I1
(I1
tp9569
g12
I00
S'\x0c\xe2\xcd\xfb\xeb\x07jA'
p9570
tp9571
bsS'648'
p9572
g2
(g3
(I0
tp9573
g5
tp9574
Rp9575
(I1
(I1
tp9576
g12
I00
S'\x87\x13@\x84\xf7=\x9dA'
p9577
tp9578
bsS'1539'
p9579
g2
(g3
(I0
tp9580
g5
tp9581
Rp9582
(I1
(I1
tp9583
g12
I00
S'|s\xfe>EL`A'
p9584
tp9585
bsS'1538'
p9586
g2
(g3
(I0
tp9587
g5
tp9588
Rp9589
(I1
(I1
tp9590
g12
I00
S'\xdeN\x98\xb4\xbfU\x82A'
p9591
tp9592
bsS'339'
p9593
g2
(g3
(I0
tp9594
g5
tp9595
Rp9596
(I1
(I1
tp9597
g12
I00
S'\xe1\x9e\x8c\x84\xd9\x18\xa6A'
p9598
tp9599
bsS'338'
p9600
g2
(g3
(I0
tp9601
g5
tp9602
Rp9603
(I1
(I1
tp9604
g12
I00
S')=\xe3`C\x8f\x99A'
p9605
tp9606
bsS'335'
p9607
g2
(g3
(I0
tp9608
g5
tp9609
Rp9610
(I1
(I1
tp9611
g12
I00
S'c\xd7&\x0e\t\xdb\x91A'
p9612
tp9613
bsS'334'
p9614
g2
(g3
(I0
tp9615
g5
tp9616
Rp9617
(I1
(I1
tp9618
g12
I00
S'$Q\x9c\xf2\xe53\x95A'
p9619
tp9620
bsS'337'
p9621
g2
(g3
(I0
tp9622
g5
tp9623
Rp9624
(I1
(I1
tp9625
g12
I00
S'p=\xf5},\xeb~A'
p9626
tp9627
bsS'336'
p9628
g2
(g3
(I0
tp9629
g5
tp9630
Rp9631
(I1
(I1
tp9632
g12
I00
S'[ley\x03\xff\x81A'
p9633
tp9634
bsS'330'
p9635
g2
(g3
(I0
tp9636
g5
tp9637
Rp9638
(I1
(I1
tp9639
g12
I00
S')\x9b\x9e\xc3\x9b\xab\x9bA'
p9640
tp9641
bsS'333'
p9642
g2
(g3
(I0
tp9643
g5
tp9644
Rp9645
(I1
(I1
tp9646
g12
I00
S'\xfb\xac\xd7\x93K\x94\x84A'
p9647
tp9648
bsS'332'
p9649
g2
(g3
(I0
tp9650
g5
tp9651
Rp9652
(I1
(I1
tp9653
g12
I00
S'H\x83&\x94\xb0\teA'
p9654
tp9655
bsS'8'
p9656
g2
(g3
(I0
tp9657
g5
tp9658
Rp9659
(I1
(I1
tp9660
g12
I00
S'\xcd\xf7\xd1\x83\xac\xcc\x95A'
p9661
tp9662
bsS'1353'
p9663
g2
(g3
(I0
tp9664
g5
tp9665
Rp9666
(I1
(I1
tp9667
g12
I00
S'\x00\xd1@\xbfO\xf9\x99A'
p9668
tp9669
bsS'1352'
p9670
g2
(g3
(I0
tp9671
g5
tp9672
Rp9673
(I1
(I1
tp9674
g12
I00
S'r\xdft\x95\xb4]\x99A'
p9675
tp9676
bsS'1886'
p9677
g2
(g3
(I0
tp9678
g5
tp9679
Rp9680
(I1
(I1
tp9681
g12
I00
S'\x026\xb1\xe5\xdd\xf0iA'
p9682
tp9683
bsS'1884'
p9684
g2
(g3
(I0
tp9685
g5
tp9686
Rp9687
(I1
(I1
tp9688
g12
I00
S'\x026\xb1\xe5\xdd\xf0iA'
p9689
tp9690
bsS'1883'
p9691
g2
(g3
(I0
tp9692
g5
tp9693
Rp9694
(I1
(I1
tp9695
g12
I00
S'\x026\xb1\xe5\xdd\xf0iA'
p9696
tp9697
bsS'1882'
p9698
g2
(g3
(I0
tp9699
g5
tp9700
Rp9701
(I1
(I1
tp9702
g12
I00
S'\x026\xb1\xe5\xdd\xf0iA'
p9703
tp9704
bsS'1881'
p9705
g2
(g3
(I0
tp9706
g5
tp9707
Rp9708
(I1
(I1
tp9709
g12
I00
S'\x026\xb1\xe5\xdd\xf0iA'
p9710
tp9711
bsS'1880'
p9712
g2
(g3
(I0
tp9713
g5
tp9714
Rp9715
(I1
(I1
tp9716
g12
I00
S'\x026\xb1\xe5\xdd\xf0iA'
p9717
tp9718
bsS'948'
p9719
g2
(g3
(I0
tp9720
g5
tp9721
Rp9722
(I1
(I1
tp9723
g12
I00
S'\xfeC\x87z#[\xa6A'
p9724
tp9725
bsS'946'
p9726
g2
(g3
(I0
tp9727
g5
tp9728
Rp9729
(I1
(I1
tp9730
g12
I00
S'\x19oJN1?\x86A'
p9731
tp9732
bsS'947'
p9733
g2
(g3
(I0
tp9734
g5
tp9735
Rp9736
(I1
(I1
tp9737
g12
I00
S'\xe3\xa6\xf0\xdeMh\x96A'
p9738
tp9739
bsS'944'
p9740
g2
(g3
(I0
tp9741
g5
tp9742
Rp9743
(I1
(I1
tp9744
g12
I00
S'2O\xe4}\xc0\x85\x8aA'
p9745
tp9746
bsS'942'
p9747
g2
(g3
(I0
tp9748
g5
tp9749
Rp9750
(I1
(I1
tp9751
g12
I00
S'\xd3\x9c\xeb\x13\xfef\x83A'
p9752
tp9753
bsS'943'
p9754
g2
(g3
(I0
tp9755
g5
tp9756
Rp9757
(I1
(I1
tp9758
g12
I00
S'>,\xa2"\xa2\xba[A'
p9759
tp9760
bsS'940'
p9761
g2
(g3
(I0
tp9762
g5
tp9763
Rp9764
(I1
(I1
tp9765
g12
I00
S'\xc5\xbc\xfb_\xe7\x86\x94A'
p9766
tp9767
bsS'941'
p9768
g2
(g3
(I0
tp9769
g5
tp9770
Rp9771
(I1
(I1
tp9772
g12
I00
S'\xe8\xad\xfa\x17\x0f\xd0\x85A'
p9773
tp9774
bsS'133'
p9775
g2
(g3
(I0
tp9776
g5
tp9777
Rp9778
(I1
(I1
tp9779
g12
I00
S'Ra\xb2\x83\x1b\x97uA'
p9780
tp9781
bsS'132'
p9782
g2
(g3
(I0
tp9783
g5
tp9784
Rp9785
(I1
(I1
tp9786
g12
I00
S"'\xb1\n\xf5.}\x9dA"
p9787
tp9788
bsS'131'
p9789
g2
(g3
(I0
tp9790
g5
tp9791
Rp9792
(I1
(I1
tp9793
g12
I00
S'V.\xbc\xe7!\xddpA'
p9794
tp9795
bsS'130'
p9796
g2
(g3
(I0
tp9797
g5
tp9798
Rp9799
(I1
(I1
tp9800
g12
I00
S'\x0f\xce\x9a&\xfd\x07\x98A'
p9801
tp9802
bsS'137'
p9803
g2
(g3
(I0
tp9804
g5
tp9805
Rp9806
(I1
(I1
tp9807
g12
I00
S'\xe4\xa9!\x1aC[\x7fA'
p9808
tp9809
bsS'136'
p9810
g2
(g3
(I0
tp9811
g5
tp9812
Rp9813
(I1
(I1
tp9814
g12
I00
S'6\x86B\x8bau\x94A'
p9815
tp9816
bsS'135'
p9817
g2
(g3
(I0
tp9818
g5
tp9819
Rp9820
(I1
(I1
tp9821
g12
I00
S'\x1bfZ\x16Y\xe9ZA'
p9822
tp9823
bsS'134'
p9824
g2
(g3
(I0
tp9825
g5
tp9826
Rp9827
(I1
(I1
tp9828
g12
I00
S'\xa0b\xc9v\xdf\xb9\xa1A'
p9829
tp9830
bsS'139'
p9831
g2
(g3
(I0
tp9832
g5
tp9833
Rp9834
(I1
(I1
tp9835
g12
I00
S'\x1d\x04\xe0b\x1b]WA'
p9836
tp9837
bsS'138'
p9838
g2
(g3
(I0
tp9839
g5
tp9840
Rp9841
(I1
(I1
tp9842
g12
I00
S'\xbe\xbcc<l>\xa3A'
p9843
tp9844
bsS'1793'
p9845
g2
(g3
(I0
tp9846
g5
tp9847
Rp9848
(I1
(I1
tp9849
g12
I00
S'\x026\xb1\xe5\xdd\xf0iA'
p9850
tp9851
bsS'708'
p9852
g2
(g3
(I0
tp9853
g5
tp9854
Rp9855
(I1
(I1
tp9856
g12
I00
S'4v\xe2\x85\xbf\xc9\x81A'
p9857
tp9858
bsS'709'
p9859
g2
(g3
(I0
tp9860
g5
tp9861
Rp9862
(I1
(I1
tp9863
g12
I00
S'L|\xdcAJk\xa1A'
p9864
tp9865
bsS'704'
p9866
g2
(g3
(I0
tp9867
g5
tp9868
Rp9869
(I1
(I1
tp9870
g12
I00
S']]u\nu\x93\x91A'
p9871
tp9872
bsS'705'
p9873
g2
(g3
(I0
tp9874
g5
tp9875
Rp9876
(I1
(I1
tp9877
g12
I00
S"\xd7-\xe7@#'\x9dA"
p9878
tp9879
bsS'706'
p9880
g2
(g3
(I0
tp9881
g5
tp9882
Rp9883
(I1
(I1
tp9884
g12
I00
S'\t\xd6\x91\xbf{\xebrA'
p9885
tp9886
bsS'707'
p9887
g2
(g3
(I0
tp9888
g5
tp9889
Rp9890
(I1
(I1
tp9891
g12
I00
S'\t@\xc8i\xefb]A'
p9892
tp9893
bsS'700'
p9894
g2
(g3
(I0
tp9895
g5
tp9896
Rp9897
(I1
(I1
tp9898
g12
I00
S'~9\xa7\xdc\x86k\x9bA'
p9899
tp9900
bsS'701'
p9901
g2
(g3
(I0
tp9902
g5
tp9903
Rp9904
(I1
(I1
tp9905
g12
I00
S'\x81\xcfQX\x95n\x93A'
p9906
tp9907
bsS'702'
p9908
g2
(g3
(I0
tp9909
g5
tp9910
Rp9911
(I1
(I1
tp9912
g12
I00
S'\xa5\xd8\x08\x81<e\xa3A'
p9913
tp9914
bsS'703'
p9915
g2
(g3
(I0
tp9916
g5
tp9917
Rp9918
(I1
(I1
tp9919
g12
I00
S'\x80\xd8[,\x140\xa0A'
p9920
tp9921
bsS'88'
p9922
g2
(g3
(I0
tp9923
g5
tp9924
Rp9925
(I1
(I1
tp9926
g12
I00
S'C\xb1\x7fz\xe02_A'
p9927
tp9928
bsS'89'
p9929
g2
(g3
(I0
tp9930
g5
tp9931
Rp9932
(I1
(I1
tp9933
g12
I00
S'\xb6T\x04c\xdbZsA'
p9934
tp9935
bsS'82'
p9936
g2
(g3
(I0
tp9937
g5
tp9938
Rp9939
(I1
(I1
tp9940
g12
I00
S'\x7f\x95\xe3\x00o\xce\x9fA'
p9941
tp9942
bsS'83'
p9943
g2
(g3
(I0
tp9944
g5
tp9945
Rp9946
(I1
(I1
tp9947
g12
I00
S'\xdc\\P\xd9@\xd8\x9fA'
p9948
tp9949
bsS'80'
p9950
g2
(g3
(I0
tp9951
g5
tp9952
Rp9953
(I1
(I1
tp9954
g12
I00
S'n\xfb\xa9u\x19\x16\xa4A'
p9955
tp9956
bsS'81'
p9957
g2
(g3
(I0
tp9958
g5
tp9959
Rp9960
(I1
(I1
tp9961
g12
I00
S'\xa6c\xd4\xd7\xee\x9a\xacA'
p9962
tp9963
bsS'86'
p9964
g2
(g3
(I0
tp9965
g5
tp9966
Rp9967
(I1
(I1
tp9968
g12
I00
S'\xd87\x0f7D\xa4\x84A'
p9969
tp9970
bsS'84'
p9971
g2
(g3
(I0
tp9972
g5
tp9973
Rp9974
(I1
(I1
tp9975
g12
I00
S'n\xe9B~]\x17\x9eA'
p9976
tp9977
bsS'85'
p9978
g2
(g3
(I0
tp9979
g5
tp9980
Rp9981
(I1
(I1
tp9982
g12
I00
S'\xb9\xeb\x92\x7f"\x8e\x92A'
p9983
tp9984
bsS'762'
p9985
g2
(g3
(I0
tp9986
g5
tp9987
Rp9988
(I1
(I1
tp9989
g12
I00
S'\x07\xbfv\xb3\x81\xbc\xa7A'
p9990
tp9991
bsS'1659'
p9992
g2
(g3
(I0
tp9993
g5
tp9994
Rp9995
(I1
(I1
tp9996
g12
I00
S'\xef\xd0w\xaaj\x10\x91A'
p9997
tp9998
bsS'1652'
p9999
g2
(g3
(I0
tp10000
g5
tp10001
Rp10002
(I1
(I1
tp10003
g12
I00
S'\xfa5\xaf?\xd9\x0b\x82A'
p10004
tp10005
bsS'1653'
p10006
g2
(g3
(I0
tp10007
g5
tp10008
Rp10009
(I1
(I1
tp10010
g12
I00
S'\xce\x89\xbd\xa7\xfa\xe5sA'
p10011
tp10012
bsS'1650'
p10013
g2
(g3
(I0
tp10014
g5
tp10015
Rp10016
(I1
(I1
tp10017
g12
I00
S'\xe9\x0eqR\x0b\x17\x9dA'
p10018
tp10019
bsS'1651'
p10020
g2
(g3
(I0
tp10021
g5
tp10022
Rp10023
(I1
(I1
tp10024
g12
I00
S'\xdazJ\xc8y\xed`A'
p10025
tp10026
bsS'1656'
p10027
g2
(g3
(I0
tp10028
g5
tp10029
Rp10030
(I1
(I1
tp10031
g12
I00
S'P\xdd\x96\xf6I\x1e\xa0A'
p10032
tp10033
bsS'1657'
p10034
g2
(g3
(I0
tp10035
g5
tp10036
Rp10037
(I1
(I1
tp10038
g12
I00
S'\x05\xb3\x04\x9f\x0cF\x96A'
p10039
tp10040
bsS'1654'
p10041
g2
(g3
(I0
tp10042
g5
tp10043
Rp10044
(I1
(I1
tp10045
g12
I00
S'u\x07\xf7y\xef-\\A'
p10046
tp10047
bsS'1655'
p10048
g2
(g3
(I0
tp10049
g5
tp10050
Rp10051
(I1
(I1
tp10052
g12
I00
S'\xdb,\xe9\x8b\xa4\xd8\x9dA'
p10053
tp10054
bsS'586'
p10055
g2
(g3
(I0
tp10056
g5
tp10057
Rp10058
(I1
(I1
tp10059
g12
I00
S'\x00\xb5\xec\x7f\x1e!~A'
p10060
tp10061
bsS'587'
p10062
g2
(g3
(I0
tp10063
g5
tp10064
Rp10065
(I1
(I1
tp10066
g12
I00
S'T\x10w(\xa7\x0eaA'
p10067
tp10068
bsS'584'
p10069
g2
(g3
(I0
tp10070
g5
tp10071
Rp10072
(I1
(I1
tp10073
g12
I00
S'+R"%k\xff\x97A'
p10074
tp10075
bsS'585'
p10076
g2
(g3
(I0
tp10077
g5
tp10078
Rp10079
(I1
(I1
tp10080
g12
I00
S'\x90\x85cb\x8d\xc4\x88A'
p10081
tp10082
bsS'763'
p10083
g2
(g3
(I0
tp10084
g5
tp10085
Rp10086
(I1
(I1
tp10087
g12
I00
S',\x88\x12g\xd9\xb2\x97A'
p10088
tp10089
bsS'583'
p10090
g2
(g3
(I0
tp10091
g5
tp10092
Rp10093
(I1
(I1
tp10094
g12
I00
S'9\xb3\x88%*\x96\x94A'
p10095
tp10096
bsS'1436'
p10097
g2
(g3
(I0
tp10098
g5
tp10099
Rp10100
(I1
(I1
tp10101
g12
I00
S'\xe9\xd0\x06\x11\x08\xb1XA'
p10102
tp10103
bsS'1437'
p10104
g2
(g3
(I0
tp10105
g5
tp10106
Rp10107
(I1
(I1
tp10108
g12
I00
S'\x12X\x93\xf7\x9e\xd5\x86A'
p10109
tp10110
bsS'1434'
p10111
g2
(g3
(I0
tp10112
g5
tp10113
Rp10114
(I1
(I1
tp10115
g12
I00
S'\xce7;\x81\xf8\xd1\x83A'
p10116
tp10117
bsS'1435'
p10118
g2
(g3
(I0
tp10119
g5
tp10120
Rp10121
(I1
(I1
tp10122
g12
I00
S'\xc2\x97\xa8\xcd\x9d\xb9`A'
p10123
tp10124
bsS'1433'
p10125
g2
(g3
(I0
tp10126
g5
tp10127
Rp10128
(I1
(I1
tp10129
g12
I00
S'?\x8d\xe7\x9c@\xb4\x9aA'
p10130
tp10131
bsS'1430'
p10132
g2
(g3
(I0
tp10133
g5
tp10134
Rp10135
(I1
(I1
tp10136
g12
I00
S'o@\xa3\xaeP\xc6\xa4A'
p10137
tp10138
bsS'1431'
p10139
g2
(g3
(I0
tp10140
g5
tp10141
Rp10142
(I1
(I1
tp10143
g12
I00
S'\x11d\xa9\x97\xbfh\x93A'
p10144
tp10145
bsS'1438'
p10146
g2
(g3
(I0
tp10147
g5
tp10148
Rp10149
(I1
(I1
tp10150
g12
I00
S'L\xcbD-y\xc5\x90A'
p10151
tp10152
bsS'1439'
p10153
g2
(g3
(I0
tp10154
g5
tp10155
Rp10156
(I1
(I1
tp10157
g12
I00
S'\xc6\x9f\x15\x11D\x96kA'
p10158
tp10159
bsS'1260'
p10160
g2
(g3
(I0
tp10161
g5
tp10162
Rp10163
(I1
(I1
tp10164
g12
I00
S'\x10\xa0WX\xf2\tfA'
p10165
tp10166
bsS'1349'
p10167
g2
(g3
(I0
tp10168
g5
tp10169
Rp10170
(I1
(I1
tp10171
g12
I00
S'\xe2/\xa0\x91$\xb1\x84A'
p10172
tp10173
bsS'458'
p10174
g2
(g3
(I0
tp10175
g5
tp10176
Rp10177
(I1
(I1
tp10178
g12
I00
S';\xd6C\x8cug\x91A'
p10179
tp10180
bsS'459'
p10181
g2
(g3
(I0
tp10182
g5
tp10183
Rp10184
(I1
(I1
tp10185
g12
I00
S'\x1d\xfd\xf5FG\x03\x95A'
p10186
tp10187
bsS'450'
p10188
g2
(g3
(I0
tp10189
g5
tp10190
Rp10191
(I1
(I1
tp10192
g12
I00
S'\x88\xaf\x86&\xe5\x10\x98A'
p10193
tp10194
bsS'451'
p10195
g2
(g3
(I0
tp10196
g5
tp10197
Rp10198
(I1
(I1
tp10199
g12
I00
S'h\x1a\xbcn\x9f6aA'
p10200
tp10201
bsS'1343'
p10202
g2
(g3
(I0
tp10203
g5
tp10204
Rp10205
(I1
(I1
tp10206
g12
I00
S'$\xbe\xca\xf9\x00\xd9iA'
p10207
tp10208
bsS'454'
p10209
g2
(g3
(I0
tp10210
g5
tp10211
Rp10212
(I1
(I1
tp10213
g12
I00
S'rb\xf6\xbdzx\x84A'
p10214
tp10215
bsS'455'
p10216
g2
(g3
(I0
tp10217
g5
tp10218
Rp10219
(I1
(I1
tp10220
g12
I00
S'\xbc\xb0\xd0\x1f\xb9V\x8fA'
p10221
tp10222
bsS'456'
p10223
g2
(g3
(I0
tp10224
g5
tp10225
Rp10226
(I1
(I1
tp10227
g12
I00
S'\x82\xc6\x01w\x18\xf5\x90A'
p10228
tp10229
bsS'457'
p10230
g2
(g3
(I0
tp10231
g5
tp10232
Rp10233
(I1
(I1
tp10234
g12
I00
S'i\x01VG\xc9\xe5\x9bA'
p10235
tp10236
bsS'517'
p10237
g2
(g3
(I0
tp10238
g5
tp10239
Rp10240
(I1
(I1
tp10241
g12
I00
S'h\xab\xc5zl\x8a\x86A'
p10242
tp10243
bsS'1502'
p10244
g2
(g3
(I0
tp10245
g5
tp10246
Rp10247
(I1
(I1
tp10248
g12
I00
S'\xfc\xed\xb2\x92d\x84\xa0A'
p10249
tp10250
bsS'1503'
p10251
g2
(g3
(I0
tp10252
g5
tp10253
Rp10254
(I1
(I1
tp10255
g12
I00
S'\x95-\xce-\xa7I\x9dA'
p10256
tp10257
bsS'1500'
p10258
g2
(g3
(I0
tp10259
g5
tp10260
Rp10261
(I1
(I1
tp10262
g12
I00
S'\xc2!\xf7:+P\xaeA'
p10263
tp10264
bsS'1501'
p10265
g2
(g3
(I0
tp10266
g5
tp10267
Rp10268
(I1
(I1
tp10269
g12
I00
S",\n\xdc\xb0\xe2'\x82A"
p10270
tp10271
bsS'652'
p10272
g2
(g3
(I0
tp10273
g5
tp10274
Rp10275
(I1
(I1
tp10276
g12
I00
S'\x9b\x93\xd1t\xca\xee\x84A'
p10277
tp10278
bsS'1507'
p10279
g2
(g3
(I0
tp10280
g5
tp10281
Rp10282
(I1
(I1
tp10283
g12
I00
S'\x1f\xea+9\x1d[|A'
p10284
tp10285
bsS'650'
p10286
g2
(g3
(I0
tp10287
g5
tp10288
Rp10289
(I1
(I1
tp10290
g12
I00
S'O\x07\xe7Z\x84\x02lA'
p10291
tp10292
bsS'1505'
p10293
g2
(g3
(I0
tp10294
g5
tp10295
Rp10296
(I1
(I1
tp10297
g12
I00
S'\x9c 4\xd5)K\xa4A'
p10298
tp10299
bsS'1508'
p10300
g2
(g3
(I0
tp10301
g5
tp10302
Rp10303
(I1
(I1
tp10304
g12
I00
S'\xd2\xa5\xd1D\xe4\xa8\xa2A'
p10305
tp10306
bsS'658'
p10307
g2
(g3
(I0
tp10308
g5
tp10309
Rp10310
(I1
(I1
tp10311
g12
I00
S'j\x17\xff7GfYA'
p10312
tp10313
bsS'516'
p10314
g2
(g3
(I0
tp10315
g5
tp10316
Rp10317
(I1
(I1
tp10318
g12
I00
S'\xea\xe9>\xeb\x86F~A'
p10319
tp10320
bsS'55'
p10321
g2
(g3
(I0
tp10322
g5
tp10323
Rp10324
(I1
(I1
tp10325
g12
I00
S'\x12]\xce~\x8d\xca\xa4A'
p10326
tp10327
bsS'1292'
p10328
g2
(g3
(I0
tp10329
g5
tp10330
Rp10331
(I1
(I1
tp10332
g12
I00
S'\xc6\xc8;\xc8\xe5~{A'
p10333
tp10334
bsS'322'
p10335
g2
(g3
(I0
tp10336
g5
tp10337
Rp10338
(I1
(I1
tp10339
g12
I00
S'N\xcfg\xbe?\xe3}A'
p10340
tp10341
bsS'323'
p10342
g2
(g3
(I0
tp10343
g5
tp10344
Rp10345
(I1
(I1
tp10346
g12
I00
S'VN\xb7\xe55\xf7\x9eA'
p10347
tp10348
bsS'320'
p10349
g2
(g3
(I0
tp10350
g5
tp10351
Rp10352
(I1
(I1
tp10353
g12
I00
S'h\xe0!Z\x1e\xfe\x9aA'
p10354
tp10355
bsS'321'
p10356
g2
(g3
(I0
tp10357
g5
tp10358
Rp10359
(I1
(I1
tp10360
g12
I00
S'\x9e6\xec\x94\xeax\x9eA'
p10361
tp10362
bsS'326'
p10363
g2
(g3
(I0
tp10364
g5
tp10365
Rp10366
(I1
(I1
tp10367
g12
I00
S'6\xfa^\xaf\r~\x84A'
p10368
tp10369
bsS'327'
p10370
g2
(g3
(I0
tp10371
g5
tp10372
Rp10373
(I1
(I1
tp10374
g12
I00
S'0\x08"9\xe4\x83pA'
p10375
tp10376
bsS'324'
p10377
g2
(g3
(I0
tp10378
g5
tp10379
Rp10380
(I1
(I1
tp10381
g12
I00
S'\x0be\xb2|\xe2Y\x95A'
p10382
tp10383
bsS'325'
p10384
g2
(g3
(I0
tp10385
g5
tp10386
Rp10387
(I1
(I1
tp10388
g12
I00
S'\xf6\xb1\xf5s\xc6EbA'
p10389
tp10390
bsS'328'
p10391
g2
(g3
(I0
tp10392
g5
tp10393
Rp10394
(I1
(I1
tp10395
g12
I00
S':*\xde\x10M\x9f\x99A'
p10396
tp10397
bsS'329'
p10398
g2
(g3
(I0
tp10399
g5
tp10400
Rp10401
(I1
(I1
tp10402
g12
I00
S'H\xf4_g1L\x8cA'
p10403
tp10404
bsS'1340'
p10405
g2
(g3
(I0
tp10406
g5
tp10407
Rp10408
(I1
(I1
tp10409
g12
I00
S'X/\xeb\x0bk\x12\xa6A'
p10410
tp10411
bsS'995'
p10412
g2
(g3
(I0
tp10413
g5
tp10414
Rp10415
(I1
(I1
tp10416
g12
I00
S'[86"\xdbU\x92A'
p10417
tp10418
bsS'994'
p10419
g2
(g3
(I0
tp10420
g5
tp10421
Rp10422
(I1
(I1
tp10423
g12
I00
S'\xf2B\x8a\xed`G\x88A'
p10424
tp10425
bsS'997'
p10426
g2
(g3
(I0
tp10427
g5
tp10428
Rp10429
(I1
(I1
tp10430
g12
I00
S'M\xd2[\xafA\xf7\x91A'
p10431
tp10432
bsS'996'
p10433
g2
(g3
(I0
tp10434
g5
tp10435
Rp10436
(I1
(I1
tp10437
g12
I00
S'2`\xa2\xf7\x1d\xc1\x95A'
p10438
tp10439
bsS'991'
p10440
g2
(g3
(I0
tp10441
g5
tp10442
Rp10443
(I1
(I1
tp10444
g12
I00
S'Z#\xb7.0\xa1\x8aA'
p10445
tp10446
bsS'990'
p10447
g2
(g3
(I0
tp10448
g5
tp10449
Rp10450
(I1
(I1
tp10451
g12
I00
S'\xd5])\xf5\xc8\xa2\x88A'
p10452
tp10453
bsS'993'
p10454
g2
(g3
(I0
tp10455
g5
tp10456
Rp10457
(I1
(I1
tp10458
g12
I00
S'\x81\x87\n#\x9a(\x89A'
p10459
tp10460
bsS'992'
p10461
g2
(g3
(I0
tp10462
g5
tp10463
Rp10464
(I1
(I1
tp10465
g12
I00
S'\xd6t\xf3\xf9Z\xe1\x86A'
p10466
tp10467
bsS'999'
p10468
g2
(g3
(I0
tp10469
g5
tp10470
Rp10471
(I1
(I1
tp10472
g12
I00
S'~u\x97\x9f5s`A'
p10473
tp10474
bsS'998'
p10475
g2
(g3
(I0
tp10476
g5
tp10477
Rp10478
(I1
(I1
tp10479
g12
I00
S'\x1c\x17kCK[\x8aA'
p10480
tp10481
bsS'120'
p10482
g2
(g3
(I0
tp10483
g5
tp10484
Rp10485
(I1
(I1
tp10486
g12
I00
S"+\x83H\x81'\x0e\x83A"
p10487
tp10488
bsS'121'
p10489
g2
(g3
(I0
tp10490
g5
tp10491
Rp10492
(I1
(I1
tp10493
g12
I00
S'\xa2M)\xa8\xb6\xb9kA'
p10494
tp10495
bsS'122'
p10496
g2
(g3
(I0
tp10497
g5
tp10498
Rp10499
(I1
(I1
tp10500
g12
I00
S'\x82~\x11\xd4\xc0f\xa2A'
p10501
tp10502
bsS'123'
p10503
g2
(g3
(I0
tp10504
g5
tp10505
Rp10506
(I1
(I1
tp10507
g12
I00
S'?t\x92Zf\xe2\x9fA'
p10508
tp10509
bsS'124'
p10510
g2
(g3
(I0
tp10511
g5
tp10512
Rp10513
(I1
(I1
tp10514
g12
I00
S'\xe3\xde\x1a\x96|4\x95A'
p10515
tp10516
bsS'125'
p10517
g2
(g3
(I0
tp10518
g5
tp10519
Rp10520
(I1
(I1
tp10521
g12
I00
S'\xd0\xfc\xefW\x18*\x9dA'
p10522
tp10523
bsS'126'
p10524
g2
(g3
(I0
tp10525
g5
tp10526
Rp10527
(I1
(I1
tp10528
g12
I00
S'\xb9\xc3r\\\x1c\x0e\x84A'
p10529
tp10530
bsS'127'
p10531
g2
(g3
(I0
tp10532
g5
tp10533
Rp10534
(I1
(I1
tp10535
g12
I00
S'\xb8\xad\xa8S\x053sA'
p10536
tp10537
bsS'128'
p10538
g2
(g3
(I0
tp10539
g5
tp10540
Rp10541
(I1
(I1
tp10542
g12
I00
S'\x9f\xa0uC!>\xb0A'
p10543
tp10544
bsS'129'
p10545
g2
(g3
(I0
tp10546
g5
tp10547
Rp10548
(I1
(I1
tp10549
g12
I00
S'\xa3\xb4\x8c\x04\xc2^\xa9A'
p10550
tp10551
bsS'520'
p10552
g2
(g3
(I0
tp10553
g5
tp10554
Rp10555
(I1
(I1
tp10556
g12
I00
S'\\\x07e\xb5X\x94\xb0A'
p10557
tp10558
bsS'521'
p10559
g2
(g3
(I0
tp10560
g5
tp10561
Rp10562
(I1
(I1
tp10563
g12
I00
S'\x1c\xd2|\niO\xaeA'
p10564
tp10565
bsS'722'
p10566
g2
(g3
(I0
tp10567
g5
tp10568
Rp10569
(I1
(I1
tp10570
g12
I00
S'\xa4\x8d\xd4*\xe3\x11\x8eA'
p10571
tp10572
bsS'723'
p10573
g2
(g3
(I0
tp10574
g5
tp10575
Rp10576
(I1
(I1
tp10577
g12
I00
S'$\x13+\xf4\xad\x87qA'
p10578
tp10579
bsS'1397'
p10580
g2
(g3
(I0
tp10581
g5
tp10582
Rp10583
(I1
(I1
tp10584
g12
I00
S'[8\xf6Q\xb5\x88\x92A'
p10585
tp10586
bsS'1645'
p10587
g2
(g3
(I0
tp10588
g5
tp10589
Rp10590
(I1
(I1
tp10591
g12
I00
S'\xfe\xd6\xaa\xef\xee\xb7zA'
p10592
tp10593
bsS'1644'
p10594
g2
(g3
(I0
tp10595
g5
tp10596
Rp10597
(I1
(I1
tp10598
g12
I00
S'?\xa0q\x87TD\x9dA'
p10599
tp10600
bsS'1647'
p10601
g2
(g3
(I0
tp10602
g5
tp10603
Rp10604
(I1
(I1
tp10605
g12
I00
S'\xe3peQ\x17\xf8\x97A'
p10606
tp10607
bsS'1646'
p10608
g2
(g3
(I0
tp10609
g5
tp10610
Rp10611
(I1
(I1
tp10612
g12
I00
S'6\xe1\xaf\x03-\xfa}A'
p10613
tp10614
bsS'1641'
p10615
g2
(g3
(I0
tp10616
g5
tp10617
Rp10618
(I1
(I1
tp10619
g12
I00
S'p\x9d\xc2:\x8f\xf1ZA'
p10620
tp10621
bsS'1640'
p10622
g2
(g3
(I0
tp10623
g5
tp10624
Rp10625
(I1
(I1
tp10626
g12
I00
S'\xedmP\x13\xf8o\x9aA'
p10627
tp10628
bsS'1643'
p10629
g2
(g3
(I0
tp10630
g5
tp10631
Rp10632
(I1
(I1
tp10633
g12
I00
S'v\xc2S\x11\x96O\x9aA'
p10634
tp10635
bsS'1642'
p10636
g2
(g3
(I0
tp10637
g5
tp10638
Rp10639
(I1
(I1
tp10640
g12
I00
S'=\xbe\xa3\x00 4aA'
p10641
tp10642
bsS'1396'
p10643
g2
(g3
(I0
tp10644
g5
tp10645
Rp10646
(I1
(I1
tp10647
g12
I00
S'\x8bDT\x8d\x8b\xd8\x8aA'
p10648
tp10649
bsS'1649'
p10650
g2
(g3
(I0
tp10651
g5
tp10652
Rp10653
(I1
(I1
tp10654
g12
I00
S'`\x83\\\\\xced\xacA'
p10655
tp10656
bsS'1648'
p10657
g2
(g3
(I0
tp10658
g5
tp10659
Rp10660
(I1
(I1
tp10661
g12
I00
S'\x8cM\xee\x1f\xf0\x01sA'
p10662
tp10663
bsS'729'
p10664
g2
(g3
(I0
tp10665
g5
tp10666
Rp10667
(I1
(I1
tp10668
g12
I00
S'\xbe\xa2L\xeb8\x90\x8cA'
p10669
tp10670
bsS'1252'
p10671
g2
(g3
(I0
tp10672
g5
tp10673
Rp10674
(I1
(I1
tp10675
g12
I00
S':T\xedF\xa5\xe9\xa1A'
p10676
tp10677
bsS'578'
p10678
g2
(g3
(I0
tp10679
g5
tp10680
Rp10681
(I1
(I1
tp10682
g12
I00
S'\x84\xb7%\x8f\xa1\r|A'
p10683
tp10684
bsS'573'
p10685
g2
(g3
(I0
tp10686
g5
tp10687
Rp10688
(I1
(I1
tp10689
g12
I00
S'\xf8\xd1\xa5M\xc1J_A'
p10690
tp10691
bsS'572'
p10692
g2
(g3
(I0
tp10693
g5
tp10694
Rp10695
(I1
(I1
tp10696
g12
I00
S'>\xc1\xfe\x7f\xdbA\x87A'
p10697
tp10698
bsS'571'
p10699
g2
(g3
(I0
tp10700
g5
tp10701
Rp10702
(I1
(I1
tp10703
g12
I00
S'\x8e\x9b\x13\xa7\xf1v\x81A'
p10704
tp10705
bsS'570'
p10706
g2
(g3
(I0
tp10707
g5
tp10708
Rp10709
(I1
(I1
tp10710
g12
I00
S'\xb0\x05\x89z|\x18\xa6A'
p10711
tp10712
bsS'577'
p10713
g2
(g3
(I0
tp10714
g5
tp10715
Rp10716
(I1
(I1
tp10717
g12
I00
S'\x0f\x04\xaf/\xcd\xef\x92A'
p10718
tp10719
bsS'576'
p10720
g2
(g3
(I0
tp10721
g5
tp10722
Rp10723
(I1
(I1
tp10724
g12
I00
S'\xac\x06\x9e\x80<\xfb\x91A'
p10725
tp10726
bsS'575'
p10727
g2
(g3
(I0
tp10728
g5
tp10729
Rp10730
(I1
(I1
tp10731
g12
I00
S'vs\xb2E\xdd\xcalA'
p10732
tp10733
bsS'601'
p10734
g2
(g3
(I0
tp10735
g5
tp10736
Rp10737
(I1
(I1
tp10738
g12
I00
S'd\xd0Gj\xedKqA'
p10739
tp10740
bsS'600'
p10741
g2
(g3
(I0
tp10742
g5
tp10743
Rp10744
(I1
(I1
tp10745
g12
I00
S"\x18n\xc8>'\xb1\x82A"
p10746
tp10747
bsS'1421'
p10748
g2
(g3
(I0
tp10749
g5
tp10750
Rp10751
(I1
(I1
tp10752
g12
I00
S'!\xd3\xca\xed\x9b\x1e\x92A'
p10753
tp10754
bsS'1420'
p10755
g2
(g3
(I0
tp10756
g5
tp10757
Rp10758
(I1
(I1
tp10759
g12
I00
S'\x92\x1eZ\x1d@1\xa6A'
p10760
tp10761
bsS'1423'
p10762
g2
(g3
(I0
tp10763
g5
tp10764
Rp10765
(I1
(I1
tp10766
g12
I00
S'o\xd8\x0eC\x89\xfc\x83A'
p10767
tp10768
bsS'1422'
p10769
g2
(g3
(I0
tp10770
g5
tp10771
Rp10772
(I1
(I1
tp10773
g12
I00
S'\xa9vq\xeac\xcftA'
p10774
tp10775
bsS'1425'
p10776
g2
(g3
(I0
tp10777
g5
tp10778
Rp10779
(I1
(I1
tp10780
g12
I00
S'\xa7\xd0\x19\xe8\xa0\xbb\x96A'
p10781
tp10782
bsS'1394'
p10783
g2
(g3
(I0
tp10784
g5
tp10785
Rp10786
(I1
(I1
tp10787
g12
I00
S'\xba= \xbf\x89 \x8fA'
p10788
tp10789
bsS'1427'
p10790
g2
(g3
(I0
tp10791
g5
tp10792
Rp10793
(I1
(I1
tp10794
g12
I00
S'\x03N3\x96v\x08\x8bA'
p10795
tp10796
bsS'1426'
p10797
g2
(g3
(I0
tp10798
g5
tp10799
Rp10800
(I1
(I1
tp10801
g12
I00
S'\x7f\xe9\xc9\xaa\xce\xee\x9bA'
p10802
tp10803
bsS'1429'
p10804
g2
(g3
(I0
tp10805
g5
tp10806
Rp10807
(I1
(I1
tp10808
g12
I00
S'!\xcc\\vk\xc8\x89A'
p10809
tp10810
bsS'1428'
p10811
g2
(g3
(I0
tp10812
g5
tp10813
Rp10814
(I1
(I1
tp10815
g12
I00
S'\xf7g\x9e\xdcj\xf1\x93A'
p10816
tp10817
bsS'731'
p10818
g2
(g3
(I0
tp10819
g5
tp10820
Rp10821
(I1
(I1
tp10822
g12
I00
S'\xf3#\x03`l;\x93A'
p10823
tp10824
bsS'730'
p10825
g2
(g3
(I0
tp10826
g5
tp10827
Rp10828
(I1
(I1
tp10829
g12
I00
S'\xb4\xe0\x84"\xb9\x93yA'
p10830
tp10831
bsS'733'
p10832
g2
(g3
(I0
tp10833
g5
tp10834
Rp10835
(I1
(I1
tp10836
g12
I00
S'\xec\x9d\xac\x8b-\ruA'
p10837
tp10838
bsS'732'
p10839
g2
(g3
(I0
tp10840
g5
tp10841
Rp10842
(I1
(I1
tp10843
g12
I00
S'\x85w\xd6\xc7o\x8c\x92A'
p10844
tp10845
bsS'735'
p10846
g2
(g3
(I0
tp10847
g5
tp10848
Rp10849
(I1
(I1
tp10850
g12
I00
S'Xb\xaa\xe5\xc3\xc9\xafA'
p10851
tp10852
bsS'734'
p10853
g2
(g3
(I0
tp10854
g5
tp10855
Rp10856
(I1
(I1
tp10857
g12
I00
S'4\xa6\x94W3\xe2\x82A'
p10858
tp10859
bsS'737'
p10860
g2
(g3
(I0
tp10861
g5
tp10862
Rp10863
(I1
(I1
tp10864
g12
I00
S'\x96z\xd8\xffyb\x97A'
p10865
tp10866
bsS'736'
p10867
g2
(g3
(I0
tp10868
g5
tp10869
Rp10870
(I1
(I1
tp10871
g12
I00
S'I\x0c0\t\xe0?\x9bA'
p10872
tp10873
bsS'739'
p10874
g2
(g3
(I0
tp10875
g5
tp10876
Rp10877
(I1
(I1
tp10878
g12
I00
S'\xb2\x8a\xdf\xd0L\xe6\x91A'
p10879
tp10880
bsS'738'
p10881
g2
(g3
(I0
tp10882
g5
tp10883
Rp10884
(I1
(I1
tp10885
g12
I00
S'K\x19\xbd\x8c\x1c\xed\x85A'
p10886
tp10887
bsS'1359'
p10888
g2
(g3
(I0
tp10889
g5
tp10890
Rp10891
(I1
(I1
tp10892
g12
I00
S'\xb5F\xffC\xdd\xfe\x94A'
p10893
tp10894
bsS'1393'
p10895
g2
(g3
(I0
tp10896
g5
tp10897
Rp10898
(I1
(I1
tp10899
g12
I00
S'."<\xeec\x99\xacA'
p10900
tp10901
bsS'468'
p10902
g2
(g3
(I0
tp10903
g5
tp10904
Rp10905
(I1
(I1
tp10906
g12
I00
S'\xbdP\xb3\xf5>\xf7\x89A'
p10907
tp10908
bsS'465'
p10909
g2
(g3
(I0
tp10910
g5
tp10911
Rp10912
(I1
(I1
tp10913
g12
I00
S'\x10\x01\x13k\x8cQfA'
p10914
tp10915
bsS'464'
p10916
g2
(g3
(I0
tp10917
g5
tp10918
Rp10919
(I1
(I1
tp10920
g12
I00
S'o\x94\xe58u\x80yA'
p10921
tp10922
bsS'1351'
p10923
g2
(g3
(I0
tp10924
g5
tp10925
Rp10926
(I1
(I1
tp10927
g12
I00
S'L\x1a`(e-bA'
p10928
tp10929
bsS'466'
p10930
g2
(g3
(I0
tp10931
g5
tp10932
Rp10933
(I1
(I1
tp10934
g12
I00
S'\x96(d\x89\x8a<\x85A'
p10935
tp10936
bsS'461'
p10937
g2
(g3
(I0
tp10938
g5
tp10939
Rp10940
(I1
(I1
tp10941
g12
I00
S'U\xeb\x0f\x8c\xb3s\x87A'
p10942
tp10943
bsS'460'
p10944
g2
(g3
(I0
tp10945
g5
tp10946
Rp10947
(I1
(I1
tp10948
g12
I00
S'M\x15\x11\xc1\x93/\x90A'
p10949
tp10950
bsS'463'
p10951
g2
(g3
(I0
tp10952
g5
tp10953
Rp10954
(I1
(I1
tp10955
g12
I00
S'B\xaac2}\xed\x86A'
p10956
tp10957
bsS'608'
p10958
g2
(g3
(I0
tp10959
g5
tp10960
Rp10961
(I1
(I1
tp10962
g12
I00
S'\x90\xfa\x0f=\xec\xd6uA'
p10963
tp10964
bsS'1519'
p10965
g2
(g3
(I0
tp10966
g5
tp10967
Rp10968
(I1
(I1
tp10969
g12
I00
S'\xd4W\xae\xc62\x0e\x83A'
p10970
tp10971
bsS'1518'
p10972
g2
(g3
(I0
tp10973
g5
tp10974
Rp10975
(I1
(I1
tp10976
g12
I00
S'"\x07\x12\xfa\xce\xfc\x8cA'
p10977
tp10978
bsS'1515'
p10979
g2
(g3
(I0
tp10980
g5
tp10981
Rp10982
(I1
(I1
tp10983
g12
I00
S'\x8c\xc7\x86Jt\xc1\xa1A'
p10984
tp10985
bsS'1514'
p10986
g2
(g3
(I0
tp10987
g5
tp10988
Rp10989
(I1
(I1
tp10990
g12
I00
S'\x97\x029uI\xd8\x91A'
p10991
tp10992
bsS'1517'
p10993
g2
(g3
(I0
tp10994
g5
tp10995
Rp10996
(I1
(I1
tp10997
g12
I00
S'\xb5N0d\xe5\xeb\x97A'
p10998
tp10999
bsS'1516'
p11000
g2
(g3
(I0
tp11001
g5
tp11002
Rp11003
(I1
(I1
tp11004
g12
I00
S'_\x15\xe0\xc0\x97%\x99A'
p11005
tp11006
bsS'1274'
p11007
g2
(g3
(I0
tp11008
g5
tp11009
Rp11010
(I1
(I1
tp11011
g12
I00
S'\xe1&_\xc0K\r\xa0A'
p11012
tp11013
bsS'1510'
p11014
g2
(g3
(I0
tp11015
g5
tp11016
Rp11017
(I1
(I1
tp11018
g12
I00
S'\xf0\xfc\x92\x0cfM\x8eA'
p11019
tp11020
bsS'1513'
p11021
g2
(g3
(I0
tp11022
g5
tp11023
Rp11024
(I1
(I1
tp11025
g12
I00
S'\xd0m_)\x0f\x93}A'
p11026
tp11027
bsS'1512'
p11028
g2
(g3
(I0
tp11029
g5
tp11030
Rp11031
(I1
(I1
tp11032
g12
I00
S'\xd3\xbf\xc8\xf7\xbb\x95\x9bA'
p11033
tp11034
bsS'1735'
p11035
g2
(g3
(I0
tp11036
g5
tp11037
Rp11038
(I1
(I1
tp11039
g12
I00
S'\xbf\x1a\x13$\x9d\x9a\x8bA'
p11040
tp11041
bsS'280'
p11042
g2
(g3
(I0
tp11043
g5
tp11044
Rp11045
(I1
(I1
tp11046
g12
I00
S'\x92\x05=E\x11\xfd\x88A'
p11047
tp11048
bsS'582'
p11049
g2
(g3
(I0
tp11050
g5
tp11051
Rp11052
(I1
(I1
tp11053
g12
I00
S'{\x0c\x19\x98\xb9\x00\x88A'
p11054
tp11055
bsS'282'
p11056
g2
(g3
(I0
tp11057
g5
tp11058
Rp11059
(I1
(I1
tp11060
g12
I00
S'\xf9\x9e@RT\x13\xa4A'
p11061
tp11062
bsS'357'
p11063
g2
(g3
(I0
tp11064
g5
tp11065
Rp11066
(I1
(I1
tp11067
g12
I00
S'\xae\xb5\x87\xd7\xaf\xfa\x9dA'
p11068
tp11069
bsS'356'
p11070
g2
(g3
(I0
tp11071
g5
tp11072
Rp11073
(I1
(I1
tp11074
g12
I00
S'\xdc\xc8\xfa*\x9cv\x89A'
p11075
tp11076
bsS'355'
p11077
g2
(g3
(I0
tp11078
g5
tp11079
Rp11080
(I1
(I1
tp11081
g12
I00
S'^i\x88\xdc45\x95A'
p11082
tp11083
bsS'354'
p11084
g2
(g3
(I0
tp11085
g5
tp11086
Rp11087
(I1
(I1
tp11088
g12
I00
S'\x1d\xbf\xae\xdf\xf5\xc9[A'
p11089
tp11090
bsS'353'
p11091
g2
(g3
(I0
tp11092
g5
tp11093
Rp11094
(I1
(I1
tp11095
g12
I00
S'\x93\x03\x9f\x92S\x8d\x95A'
p11096
tp11097
bsS'352'
p11098
g2
(g3
(I0
tp11099
g5
tp11100
Rp11101
(I1
(I1
tp11102
g12
I00
S'\x1c?\xf5\xf3\xf4\xcb`A'
p11103
tp11104
bsS'351'
p11105
g2
(g3
(I0
tp11106
g5
tp11107
Rp11108
(I1
(I1
tp11109
g12
I00
S'y8,3\xac\xba{A'
p11110
tp11111
bsS'350'
p11112
g2
(g3
(I0
tp11113
g5
tp11114
Rp11115
(I1
(I1
tp11116
g12
I00
S'_Pi(\xd8\xc8\x8dA'
p11117
tp11118
bsS'359'
p11119
g2
(g3
(I0
tp11120
g5
tp11121
Rp11122
(I1
(I1
tp11123
g12
I00
S'8\xcc8\xbc\xd1\xbf\x8aA'
p11124
tp11125
bsS'358'
p11126
g2
(g3
(I0
tp11127
g5
tp11128
Rp11129
(I1
(I1
tp11130
g12
I00
S'fpR\xfb\x11\xb4\x83A'
p11131
tp11132
bsS'1033'
p11133
g2
(g3
(I0
tp11134
g5
tp11135
Rp11136
(I1
(I1
tp11137
g12
I00
S'\xb60v\xba0)\x8dA'
p11138
tp11139
bsS'1446'
p11140
g2
(g3
(I0
tp11141
g5
tp11142
Rp11143
(I1
(I1
tp11144
g12
I00
S"\x168'\x1f\xa8\t\xa9A"
p11145
tp11146
bsS'1113'
p11147
g2
(g3
(I0
tp11148
g5
tp11149
Rp11150
(I1
(I1
tp11151
g12
I00
S'\xa0]\x93|\x87\x9f\x82A'
p11152
tp11153
bsS'289'
p11154
g2
(g3
(I0
tp11155
g5
tp11156
Rp11157
(I1
(I1
tp11158
g12
I00
S'\xba\xbb\xcb\xf6]\xab\x84A'
p11159
tp11160
bsS'288'
p11161
g2
(g3
(I0
tp11162
g5
tp11163
Rp11164
(I1
(I1
tp11165
g12
I00
S'\x0c\xef5\xabF"\x93A'
p11166
tp11167
bsS'1112'
p11168
g2
(g3
(I0
tp11169
g5
tp11170
Rp11171
(I1
(I1
tp11172
g12
I00
S'`\xfe\x96"\xc5\x05`A'
p11173
tp11174
bsS'281'
p11175
g2
(g3
(I0
tp11176
g5
tp11177
Rp11178
(I1
(I1
tp11179
g12
I00
S'\x1c/!~\xd3\x9baA'
p11180
tp11181
bsS'5'
p11182
g2
(g3
(I0
tp11183
g5
tp11184
Rp11185
(I1
(I1
tp11186
g12
I00
S'*j\x0e\x0f\x16\xfd\x85A'
p11187
tp11188
bsS'283'
p11189
g2
(g3
(I0
tp11190
g5
tp11191
Rp11192
(I1
(I1
tp11193
g12
I00
S'H\xf5\xd7\x00)@lA'
p11194
tp11195
bsS'1030'
p11196
g2
(g3
(I0
tp11197
g5
tp11198
Rp11199
(I1
(I1
tp11200
g12
I00
S'.\x1aMT7)\x93A'
p11201
tp11202
bsS'285'
p11203
g2
(g3
(I0
tp11204
g5
tp11205
Rp11206
(I1
(I1
tp11207
g12
I00
S'\xdc\xb8\xc4-%\xb1aA'
p11208
tp11209
bsS'284'
p11210
g2
(g3
(I0
tp11211
g5
tp11212
Rp11213
(I1
(I1
tp11214
g12
I00
S'\xf7[\xcdO2_\x9cA'
p11215
tp11216
bsS'287'
p11217
g2
(g3
(I0
tp11218
g5
tp11219
Rp11220
(I1
(I1
tp11221
g12
I00
S'`l\xcd\x839D\x80A'
p11222
tp11223
bsS'1114'
p11224
g2
(g3
(I0
tp11225
g5
tp11226
Rp11227
(I1
(I1
tp11228
g12
I00
S'q\xf6\xca\x7f\xa0`\x99A'
p11229
tp11230
bsS'263'
p11231
g2
(g3
(I0
tp11232
g5
tp11233
Rp11234
(I1
(I1
tp11235
g12
I00
S'\xf2S\xa5\xf7bK\x8aA'
p11236
tp11237
bsS'262'
p11238
g2
(g3
(I0
tp11239
g5
tp11240
Rp11241
(I1
(I1
tp11242
g12
I00
S'\x02}pw\xe3\\\x93A'
p11243
tp11244
bsS'261'
p11245
g2
(g3
(I0
tp11246
g5
tp11247
Rp11248
(I1
(I1
tp11249
g12
I00
S'\xe6\xb6v\xe0\x87\x04\x89A'
p11250
tp11251
bsS'260'
p11252
g2
(g3
(I0
tp11253
g5
tp11254
Rp11255
(I1
(I1
tp11256
g12
I00
S'\x9f\xb5\xe8\xbf\xf1\xa7\x9fA'
p11257
tp11258
bsS'267'
p11259
g2
(g3
(I0
tp11260
g5
tp11261
Rp11262
(I1
(I1
tp11263
g12
I00
S'\xb4\xff\x9e\x1c\x82FnA'
p11264
tp11265
bsS'266'
p11266
g2
(g3
(I0
tp11267
g5
tp11268
Rp11269
(I1
(I1
tp11270
g12
I00
S'\xb7:J\xff\xc5\xc2sA'
p11271
tp11272
bsS'1792'
p11273
g2
(g3
(I0
tp11274
g5
tp11275
Rp11276
(I1
(I1
tp11277
g12
I00
S'\x026\xb1\xe5\xdd\xf0iA'
p11278
tp11279
bsS'264'
p11280
g2
(g3
(I0
tp11281
g5
tp11282
Rp11283
(I1
(I1
tp11284
g12
I00
S'2\xe7\x81\xc5u\xfa\x9bA'
p11285
tp11286
bsS'1031'
p11287
g2
(g3
(I0
tp11288
g5
tp11289
Rp11290
(I1
(I1
tp11291
g12
I00
S'mvp\xca\x97\xec\x97A'
p11292
tp11293
bsS'269'
p11294
g2
(g3
(I0
tp11295
g5
tp11296
Rp11297
(I1
(I1
tp11298
g12
I00
S'\xf8\xff\x8c\xdf4\xe9\x92A'
p11299
tp11300
bsS'268'
p11301
g2
(g3
(I0
tp11302
g5
tp11303
Rp11304
(I1
(I1
tp11305
g12
I00
S'\x7f>\x90i\xddy\\A'
p11306
tp11307
bsS'1562'
p11308
g2
(g3
(I0
tp11309
g5
tp11310
Rp11311
(I1
(I1
tp11312
g12
I00
S'.\x99\x0eVS\x93\xa1A'
p11313
tp11314
bsS'1291'
p11315
g2
(g3
(I0
tp11316
g5
tp11317
Rp11318
(I1
(I1
tp11319
g12
I00
S'GJ\xcf\xd9\xca@\xa3A'
p11320
tp11321
bsS'1566'
p11322
g2
(g3
(I0
tp11323
g5
tp11324
Rp11325
(I1
(I1
tp11326
g12
I00
S'\xee1H\x0f\x8f\x1e\x87A'
p11327
tp11328
bsS'988'
p11329
g2
(g3
(I0
tp11330
g5
tp11331
Rp11332
(I1
(I1
tp11333
g12
I00
S'S.{E\xfb\x83\x80A'
p11334
tp11335
bsS'989'
p11336
g2
(g3
(I0
tp11337
g5
tp11338
Rp11339
(I1
(I1
tp11340
g12
I00
S'\x9e\x1ca\xc5\xc0=hA'
p11341
tp11342
bsS'982'
p11343
g2
(g3
(I0
tp11344
g5
tp11345
Rp11346
(I1
(I1
tp11347
g12
I00
S'\xc2\xecI\x1eg\xf8\x9aA'
p11348
tp11349
bsS'983'
p11350
g2
(g3
(I0
tp11351
g5
tp11352
Rp11353
(I1
(I1
tp11354
g12
I00
S'\x85K\xbd(\xbd\xbc|A'
p11355
tp11356
bsS'980'
p11357
g2
(g3
(I0
tp11358
g5
tp11359
Rp11360
(I1
(I1
tp11361
g12
I00
S'\xa5.\xe5t3e\x8cA'
p11362
tp11363
bsS'981'
p11364
g2
(g3
(I0
tp11365
g5
tp11366
Rp11367
(I1
(I1
tp11368
g12
I00
S'=L\xf2\xf8\xdee\x95A'
p11369
tp11370
bsS'986'
p11371
g2
(g3
(I0
tp11372
g5
tp11373
Rp11374
(I1
(I1
tp11375
g12
I00
S'\xbe\xc0\xce\xa1\xc8`\x86A'
p11376
tp11377
bsS'984'
p11378
g2
(g3
(I0
tp11379
g5
tp11380
Rp11381
(I1
(I1
tp11382
g12
I00
S'\xebi\xc6\xad<kqA'
p11383
tp11384
bsS'985'
p11385
g2
(g3
(I0
tp11386
g5
tp11387
Rp11388
(I1
(I1
tp11389
g12
I00
S'\xbb0K\xc90\xe1{A'
p11390
tp11391
bsS'115'
p11392
g2
(g3
(I0
tp11393
g5
tp11394
Rp11395
(I1
(I1
tp11396
g12
I00
S'p(:\xd0\xa1\x06\x91A'
p11397
tp11398
bsS'114'
p11399
g2
(g3
(I0
tp11400
g5
tp11401
Rp11402
(I1
(I1
tp11403
g12
I00
S'\xa7\xf8\x13\nSx\x9bA'
p11404
tp11405
bsS'117'
p11406
g2
(g3
(I0
tp11407
g5
tp11408
Rp11409
(I1
(I1
tp11410
g12
I00
S'\x84z \xe1\x85\xe6zA'
p11411
tp11412
bsS'116'
p11413
g2
(g3
(I0
tp11414
g5
tp11415
Rp11416
(I1
(I1
tp11417
g12
I00
S'gN\r\xd0\xa6\x06\x9bA'
p11418
tp11419
bsS'111'
p11420
g2
(g3
(I0
tp11421
g5
tp11422
Rp11423
(I1
(I1
tp11424
g12
I00
S'o)\x14\x1dKZ\x92A'
p11425
tp11426
bsS'110'
p11427
g2
(g3
(I0
tp11428
g5
tp11429
Rp11430
(I1
(I1
tp11431
g12
I00
S'\xc7\xb1\nw\xd0M{A'
p11432
tp11433
bsS'113'
p11434
g2
(g3
(I0
tp11435
g5
tp11436
Rp11437
(I1
(I1
tp11438
g12
I00
S'\n\xf3\x1c\xce\x1f\xd4tA'
p11439
tp11440
bsS'112'
p11441
g2
(g3
(I0
tp11442
g5
tp11443
Rp11444
(I1
(I1
tp11445
g12
I00
S'\xc4\xaa\xea\xeb\xc4\x02\x9fA'
p11446
tp11447
bsS'119'
p11448
g2
(g3
(I0
tp11449
g5
tp11450
Rp11451
(I1
(I1
tp11452
g12
I00
S'`\x84\xdaN\xf5i\x92A'
p11453
tp11454
bsS'118'
p11455
g2
(g3
(I0
tp11456
g5
tp11457
Rp11458
(I1
(I1
tp11459
g12
I00
S'!t\xf9\xc4\x1a\x1dqA'
p11460
tp11461
bsS'1797'
p11462
g2
(g3
(I0
tp11463
g5
tp11464
Rp11465
(I1
(I1
tp11466
g12
I00
S'\x026\xb1\xe5\xdd\xf0iA'
p11467
tp11468
bsS'1388'
p11469
g2
(g3
(I0
tp11470
g5
tp11471
Rp11472
(I1
(I1
tp11473
g12
I00
S'\xf0/\xa3\xa5\xe5I\x8fA'
p11474
tp11475
bsS'1796'
p11476
g2
(g3
(I0
tp11477
g5
tp11478
Rp11479
(I1
(I1
tp11480
g12
I00
S'\x026\xb1\xe5\xdd\xf0iA'
p11481
tp11482
bsS'1389'
p11483
g2
(g3
(I0
tp11484
g5
tp11485
Rp11486
(I1
(I1
tp11487
g12
I00
S'\\B(\xb1\xa6\x88\xa5A'
p11488
tp11489
bsS'820'
p11490
g2
(g3
(I0
tp11491
g5
tp11492
Rp11493
(I1
(I1
tp11494
g12
I00
S'2\xa6\xd1\xa1Nz\xa2A'
p11495
tp11496
bsS'954'
p11497
g2
(g3
(I0
tp11498
g5
tp11499
Rp11500
(I1
(I1
tp11501
g12
I00
S'0\xe4\xfd\x01\x8bepA'
p11502
tp11503
bsS'1630'
p11504
g2
(g3
(I0
tp11505
g5
tp11506
Rp11507
(I1
(I1
tp11508
g12
I00
S'*J\x16\x9c\xe1\x7f\xafA'
p11509
tp11510
bsS'1631'
p11511
g2
(g3
(I0
tp11512
g5
tp11513
Rp11514
(I1
(I1
tp11515
g12
I00
S'\xdc\x1dt\xeab7\xaeA'
p11516
tp11517
bsS'1632'
p11518
g2
(g3
(I0
tp11519
g5
tp11520
Rp11521
(I1
(I1
tp11522
g12
I00
S'\xe5\n\xa7u\x1b\x01\x90A'
p11523
tp11524
bsS'1633'
p11525
g2
(g3
(I0
tp11526
g5
tp11527
Rp11528
(I1
(I1
tp11529
g12
I00
S'\xc7\xe9a\xedp\xd8\x97A'
p11530
tp11531
bsS'1634'
p11532
g2
(g3
(I0
tp11533
g5
tp11534
Rp11535
(I1
(I1
tp11536
g12
I00
S'-et\x8c\xc5\x9bXA'
p11537
tp11538
bsS'1635'
p11539
g2
(g3
(I0
tp11540
g5
tp11541
Rp11542
(I1
(I1
tp11543
g12
I00
S'\xc7\xbe\x8f3\xbe\x08\xafA'
p11544
tp11545
bsS'1636'
p11546
g2
(g3
(I0
tp11547
g5
tp11548
Rp11549
(I1
(I1
tp11550
g12
I00
S';/\xac\x87\xa0\xcesA'
p11551
tp11552
bsS'1637'
p11553
g2
(g3
(I0
tp11554
g5
tp11555
Rp11556
(I1
(I1
tp11557
g12
I00
S'\x94\x06`\x0e\x07\x06\xaaA'
p11558
tp11559
bsS'1638'
p11560
g2
(g3
(I0
tp11561
g5
tp11562
Rp11563
(I1
(I1
tp11564
g12
I00
S'MT\xb3S\xe6\xb2\x94A'
p11565
tp11566
bsS'1639'
p11567
g2
(g3
(I0
tp11568
g5
tp11569
Rp11570
(I1
(I1
tp11571
g12
I00
S'\x13\xf1\x1b\x97|\xf4^A'
p11572
tp11573
bsS'568'
p11574
g2
(g3
(I0
tp11575
g5
tp11576
Rp11577
(I1
(I1
tp11578
g12
I00
S'\xf3\x08\xf7\xba\xff\xf4\x9aA'
p11579
tp11580
bsS'569'
p11581
g2
(g3
(I0
tp11582
g5
tp11583
Rp11584
(I1
(I1
tp11585
g12
I00
S'\xf7d\xde\xad%\xcf\x97A'
p11586
tp11587
bsS'560'
p11588
g2
(g3
(I0
tp11589
g5
tp11590
Rp11591
(I1
(I1
tp11592
g12
I00
S'd!|c\xc3slA'
p11593
tp11594
bsS'561'
p11595
g2
(g3
(I0
tp11596
g5
tp11597
Rp11598
(I1
(I1
tp11599
g12
I00
S'\xc3\xb3~cmw\x91A'
p11600
tp11601
bsS'562'
p11602
g2
(g3
(I0
tp11603
g5
tp11604
Rp11605
(I1
(I1
tp11606
g12
I00
S'\nBH\x13u\xbf\x8fA'
p11607
tp11608
bsS'563'
p11609
g2
(g3
(I0
tp11610
g5
tp11611
Rp11612
(I1
(I1
tp11613
g12
I00
S'p\n\xd09!\xad\xafA'
p11614
tp11615
bsS'564'
p11616
g2
(g3
(I0
tp11617
g5
tp11618
Rp11619
(I1
(I1
tp11620
g12
I00
S'r\xe6#\x08\x7f&\x8dA'
p11621
tp11622
bsS'565'
p11623
g2
(g3
(I0
tp11624
g5
tp11625
Rp11626
(I1
(I1
tp11627
g12
I00
S'0\xc7\x8e\xddM|\x8dA'
p11628
tp11629
bsS'566'
p11630
g2
(g3
(I0
tp11631
g5
tp11632
Rp11633
(I1
(I1
tp11634
g12
I00
S':\x91\xfe\xa7W\xf9\xadA'
p11635
tp11636
bsS'567'
p11637
g2
(g3
(I0
tp11638
g5
tp11639
Rp11640
(I1
(I1
tp11641
g12
I00
S'\xbbb\x1d\xb6\xf1\x98\xaaA'
p11642
tp11643
bsS'1188'
p11644
g2
(g3
(I0
tp11645
g5
tp11646
Rp11647
(I1
(I1
tp11648
g12
I00
S'\xb0\x88g\xc8x\x82\x82A'
p11649
tp11650
bsS'1189'
p11651
g2
(g3
(I0
tp11652
g5
tp11653
Rp11654
(I1
(I1
tp11655
g12
I00
S'9$\x0bv\xb2Z\x9aA'
p11656
tp11657
bsS'1186'
p11658
g2
(g3
(I0
tp11659
g5
tp11660
Rp11661
(I1
(I1
tp11662
g12
I00
S'\x9c\xbe\xca\xe7\xd5xaA'
p11663
tp11664
bsS'1187'
p11665
g2
(g3
(I0
tp11666
g5
tp11667
Rp11668
(I1
(I1
tp11669
g12
I00
S'\x92j\xf7\xef\xd8SrA'
p11670
tp11671
bsS'1184'
p11672
g2
(g3
(I0
tp11673
g5
tp11674
Rp11675
(I1
(I1
tp11676
g12
I00
S'\xda+\xcb\x1a\x11\xfa\x92A'
p11677
tp11678
bsS'1185'
p11679
g2
(g3
(I0
tp11680
g5
tp11681
Rp11682
(I1
(I1
tp11683
g12
I00
S'\x0c\xbc\x00EE\x15\x95A'
p11684
tp11685
bsS'1182'
p11686
g2
(g3
(I0
tp11687
g5
tp11688
Rp11689
(I1
(I1
tp11690
g12
I00
S'\xb7I\x1c.G9\x9eA'
p11691
tp11692
bsS'1183'
p11693
g2
(g3
(I0
tp11694
g5
tp11695
Rp11696
(I1
(I1
tp11697
g12
I00
S'\xecI\x9a\nK\xe2\x85A'
p11698
tp11699
bsS'1180'
p11700
g2
(g3
(I0
tp11701
g5
tp11702
Rp11703
(I1
(I1
tp11704
g12
I00
S'\xfec2\xa0\xfd\xc2\xb1A'
p11705
tp11706
bsS'1181'
p11707
g2
(g3
(I0
tp11708
g5
tp11709
Rp11710
(I1
(I1
tp11711
g12
I00
S'\x80\xdfnT\xd0\xae}A'
p11712
tp11713
bsS'726'
p11714
g2
(g3
(I0
tp11715
g5
tp11716
Rp11717
(I1
(I1
tp11718
g12
I00
S'\xb33X\xa64\xd4\xa2A'
p11719
tp11720
bsS'727'
p11721
g2
(g3
(I0
tp11722
g5
tp11723
Rp11724
(I1
(I1
tp11725
g12
I00
S'\xe1\xb6\xdc\xac\xda\xc4\x9dA'
p11726
tp11727
bsS'724'
p11728
g2
(g3
(I0
tp11729
g5
tp11730
Rp11731
(I1
(I1
tp11732
g12
I00
S'\xb2\x16\x0b\xab\x99\xf8\x9fA'
p11733
tp11734
bsS'725'
p11735
g2
(g3
(I0
tp11736
g5
tp11737
Rp11738
(I1
(I1
tp11739
g12
I00
S"'\xd7F\xd2\x9d\xdfuA"
p11740
tp11741
bsS'1748'
p11742
g2
(g3
(I0
tp11743
g5
tp11744
Rp11745
(I1
(I1
tp11746
g12
I00
S'\x026\xb1\xe5\xdd\xf0iA'
p11747
tp11748
bsS'1749'
p11749
g2
(g3
(I0
tp11750
g5
tp11751
Rp11752
(I1
(I1
tp11753
g12
I00
S'\x026\xb1\xe5\xdd\xf0iA'
p11754
tp11755
bsS'720'
p11756
g2
(g3
(I0
tp11757
g5
tp11758
Rp11759
(I1
(I1
tp11760
g12
I00
S'XB\xc6k\x00b\xa3A'
p11761
tp11762
bsS'721'
p11763
g2
(g3
(I0
tp11764
g5
tp11765
Rp11766
(I1
(I1
tp11767
g12
I00
S'\xbe\xd0v\x9a\xfc\x86\x9dA'
p11768
tp11769
bsS'1744'
p11770
g2
(g3
(I0
tp11771
g5
tp11772
Rp11773
(I1
(I1
tp11774
g12
I00
S'\x026\xb1\xe5\xdd\xf0iA'
p11775
tp11776
bsS'1745'
p11777
g2
(g3
(I0
tp11778
g5
tp11779
Rp11780
(I1
(I1
tp11781
g12
I00
S'\x026\xb1\xe5\xdd\xf0iA'
p11782
tp11783
bsS'1746'
p11784
g2
(g3
(I0
tp11785
g5
tp11786
Rp11787
(I1
(I1
tp11788
g12
I00
S'\x026\xb1\xe5\xdd\xf0iA'
p11789
tp11790
bsS'1747'
p11791
g2
(g3
(I0
tp11792
g5
tp11793
Rp11794
(I1
(I1
tp11795
g12
I00
S'\x026\xb1\xe5\xdd\xf0iA'
p11796
tp11797
bsS'1740'
p11798
g2
(g3
(I0
tp11799
g5
tp11800
Rp11801
(I1
(I1
tp11802
g12
I00
S'\xe8\xf1\x055\xf9^\x88A'
p11803
tp11804
bsS'1741'
p11805
g2
(g3
(I0
tp11806
g5
tp11807
Rp11808
(I1
(I1
tp11809
g12
I00
S'\xceq\xd4q+\xd6xA'
p11810
tp11811
bsS'728'
p11812
g2
(g3
(I0
tp11813
g5
tp11814
Rp11815
(I1
(I1
tp11816
g12
I00
S'\xf9\xe4\xf9\x19T\xd5\x85A'
p11817
tp11818
bsS'1743'
p11819
g2
(g3
(I0
tp11820
g5
tp11821
Rp11822
(I1
(I1
tp11823
g12
I00
S'\x81U*\xf5!b\x91A'
p11824
tp11825
bsS'1164'
p11826
g2
(g3
(I0
tp11827
g5
tp11828
Rp11829
(I1
(I1
tp11830
g12
I00
S'b\xae,\xf9X\xc4oA'
p11831
tp11832
bsS'1165'
p11833
g2
(g3
(I0
tp11834
g5
tp11835
Rp11836
(I1
(I1
tp11837
g12
I00
S'\x15s\xb8E\x8d\xce\x87A'
p11838
tp11839
bsS'1166'
p11840
g2
(g3
(I0
tp11841
g5
tp11842
Rp11843
(I1
(I1
tp11844
g12
I00
S'Gw\xd5\x1d\xb7}\x9aA'
p11845
tp11846
bsS'1160'
p11847
g2
(g3
(I0
tp11848
g5
tp11849
Rp11850
(I1
(I1
tp11851
g12
I00
S'W3.\x91Z\x9d\x8bA'
p11852
tp11853
bsS'1161'
p11854
g2
(g3
(I0
tp11855
g5
tp11856
Rp11857
(I1
(I1
tp11858
g12
I00
S'$|\xa0\x82\xbbC\x94A'
p11859
tp11860
bsS'1162'
p11861
g2
(g3
(I0
tp11862
g5
tp11863
Rp11864
(I1
(I1
tp11865
g12
I00
S']9,g\xfd\x15\xa0A'
p11866
tp11867
bsS'1163'
p11868
g2
(g3
(I0
tp11869
g5
tp11870
Rp11871
(I1
(I1
tp11872
g12
I00
S'\xd0\xa3\x92\xfc\xe9\xb7\x8aA'
p11873
tp11874
bsS'1168'
p11875
g2
(g3
(I0
tp11876
g5
tp11877
Rp11878
(I1
(I1
tp11879
g12
I00
S'\xf0\xf4\x95\xceG\xb9\xa0A'
p11880
tp11881
bsS'1169'
p11882
g2
(g3
(I0
tp11883
g5
tp11884
Rp11885
(I1
(I1
tp11886
g12
I00
S'\x94{\xeb&7\xcc\x8cA'
p11887
tp11888
bsS'1366'
p11889
g2
(g3
(I0
tp11890
g5
tp11891
Rp11892
(I1
(I1
tp11893
g12
I00
S'Y$\xfe\xcb\x1e\x17\x8fA'
p11894
tp11895
bsS'48'
p11896
g2
(g3
(I0
tp11897
g5
tp11898
Rp11899
(I1
(I1
tp11900
g12
I00
S'q\xbd\x10/~\xab\x99A'
p11901
tp11902
bsS'49'
p11903
g2
(g3
(I0
tp11904
g5
tp11905
Rp11906
(I1
(I1
tp11907
g12
I00
S'\xf2\xca\x10\x87\xe9\xf6\x8cA'
p11908
tp11909
bsS'46'
p11910
g2
(g3
(I0
tp11911
g5
tp11912
Rp11913
(I1
(I1
tp11914
g12
I00
S"\xb6'\xed%Y0\x92A"
p11915
tp11916
bsS'47'
p11917
g2
(g3
(I0
tp11918
g5
tp11919
Rp11920
(I1
(I1
tp11921
g12
I00
S'\xc2\x87\x95\x87\xe7\xea_A'
p11922
tp11923
bsS'44'
p11924
g2
(g3
(I0
tp11925
g5
tp11926
Rp11927
(I1
(I1
tp11928
g12
I00
S'\x94L\xf5\x86\xa2\xce\x85A'
p11929
tp11930
bsS'45'
p11931
g2
(g3
(I0
tp11932
g5
tp11933
Rp11934
(I1
(I1
tp11935
g12
I00
S'f\xe3yw\xcf\xa9\xafA'
p11936
tp11937
bsS'43'
p11938
g2
(g3
(I0
tp11939
g5
tp11940
Rp11941
(I1
(I1
tp11942
g12
I00
S'\xb6\x82\xa3t\x1e\xa8\xa5A'
p11943
tp11944
bsS'40'
p11945
g2
(g3
(I0
tp11946
g5
tp11947
Rp11948
(I1
(I1
tp11949
g12
I00
S'Q\xcaq\x15|\x8c\x94A'
p11950
tp11951
bsS'41'
p11952
g2
(g3
(I0
tp11953
g5
tp11954
Rp11955
(I1
(I1
tp11956
g12
I00
S'W\xa3\x13v8>\x95A'
p11957
tp11958
bsS'1568'
p11959
g2
(g3
(I0
tp11960
g5
tp11961
Rp11962
(I1
(I1
tp11963
g12
I00
S'\xa9\xd7\x0f\xe8\x8a\xf5\x9dA'
p11964
tp11965
bsS'1569'
p11966
g2
(g3
(I0
tp11967
g5
tp11968
Rp11969
(I1
(I1
tp11970
g12
I00
S'\xcf\t\xb3\x87=\xa6\x90A'
p11971
tp11972
bsS'1298'
p11973
g2
(g3
(I0
tp11974
g5
tp11975
Rp11976
(I1
(I1
tp11977
g12
I00
S'\x99\x1a\xe75\x1d<\x95A'
p11978
tp11979
bsS'1299'
p11980
g2
(g3
(I0
tp11981
g5
tp11982
Rp11983
(I1
(I1
tp11984
g12
I00
S'y\xc4\x08v\x8b\xce\xa0A'
p11985
tp11986
bsS'1560'
p11987
g2
(g3
(I0
tp11988
g5
tp11989
Rp11990
(I1
(I1
tp11991
g12
I00
S'\x92\xf9ej\xe9\x9c\x9aA'
p11992
tp11993
bsS'1561'
p11994
g2
(g3
(I0
tp11995
g5
tp11996
Rp11997
(I1
(I1
tp11998
g12
I00
S'\xff\xeb\xf4\xff\x9f\r\x9bA'
p11999
tp12000
bsS'1290'
p12001
g2
(g3
(I0
tp12002
g5
tp12003
Rp12004
(I1
(I1
tp12005
g12
I00
S'\xdc\x8al\xdd\x92_\xa1A'
p12006
tp12007
bsS'1563'
p12008
g2
(g3
(I0
tp12009
g5
tp12010
Rp12011
(I1
(I1
tp12012
g12
I00
S'\xa5\xb0 \x08\xf7\n\x96A'
p12013
tp12014
bsS'1564'
p12015
g2
(g3
(I0
tp12016
g5
tp12017
Rp12018
(I1
(I1
tp12019
g12
I00
S'\xe0v\x1a\n\xcbn\xa1A'
p12020
tp12021
bsS'1565'
p12022
g2
(g3
(I0
tp12023
g5
tp12024
Rp12025
(I1
(I1
tp12026
g12
I00
S'\x93\xa5mJ\xb7\x1e`A'
p12027
tp12028
bsS'1294'
p12029
g2
(g3
(I0
tp12030
g5
tp12031
Rp12032
(I1
(I1
tp12033
g12
I00
S'0\x83\x15C93\\A'
p12034
tp12035
bsS'1567'
p12036
g2
(g3
(I0
tp12037
g5
tp12038
Rp12039
(I1
(I1
tp12040
g12
I00
S'\x18{\r5\x9fmbA'
p12041
tp12042
bsS'1713'
p12043
g2
(g3
(I0
tp12044
g5
tp12045
Rp12046
(I1
(I1
tp12047
g12
I00
S'U\xec\xfc\xc9\xd0\t\x96A'
p12048
tp12049
bsS'1360'
p12050
g2
(g3
(I0
tp12051
g5
tp12052
Rp12053
(I1
(I1
tp12054
g12
I00
S'#\xb5\xbe\xd0=\x8e\x93A'
p12055
tp12056
bsS'1712'
p12057
g2
(g3
(I0
tp12058
g5
tp12059
Rp12060
(I1
(I1
tp12061
g12
I00
S'\xe3\xbb\xe4*w\xecXA'
p12062
tp12063
bsS'475'
p12064
g2
(g3
(I0
tp12065
g5
tp12066
Rp12067
(I1
(I1
tp12068
g12
I00
S'\xa4\xa6\xa8)\xd5\xc6\xa0A'
p12069
tp12070
bsS'1711'
p12071
g2
(g3
(I0
tp12072
g5
tp12073
Rp12074
(I1
(I1
tp12075
g12
I00
S'D\xa0*\x0f\x1cs\xa5A'
p12076
tp12077
bsS'1381'
p12078
g2
(g3
(I0
tp12079
g5
tp12080
Rp12081
(I1
(I1
tp12082
g12
I00
S'\\\x1e6n\x08\xf6sA'
p12083
tp12084
bsS'1710'
p12085
g2
(g3
(I0
tp12086
g5
tp12087
Rp12088
(I1
(I1
tp12089
g12
I00
S'f\x9eXe\x8bF\xa0A'
p12090
tp12091
bsS'793'
p12092
g2
(g3
(I0
tp12093
g5
tp12094
Rp12095
(I1
(I1
tp12096
g12
I00
S'\r\xb2A\xc3-\xd6\x99A'
p12097
tp12098
bsS'1716'
p12099
g2
(g3
(I0
tp12100
g5
tp12101
Rp12102
(I1
(I1
tp12103
g12
I00
S'\x90>\x10\x86:\x89dA'
p12104
tp12105
bsS'1715'
p12106
g2
(g3
(I0
tp12107
g5
tp12108
Rp12109
(I1
(I1
tp12110
g12
I00
S'Eu\x98\x0b\x9f.PA'
p12111
tp12112
bsS'1201'
p12113
g2
(g3
(I0
tp12114
g5
tp12115
Rp12116
(I1
(I1
tp12117
g12
I00
S'\x0c\x8aT\xc1CObA'
p12118
tp12119
bsS'1714'
p12120
g2
(g3
(I0
tp12121
g5
tp12122
Rp12123
(I1
(I1
tp12124
g12
I00
S'\xa6\xe0I\xd9\xffM\x8bA'
p12125
tp12126
bsS'472'
p12127
g2
(g3
(I0
tp12128
g5
tp12129
Rp12130
(I1
(I1
tp12131
g12
I00
S'\x009"\xe7\xa6\r\x8bA'
p12132
tp12133
bsS'1367'
p12134
g2
(g3
(I0
tp12135
g5
tp12136
Rp12137
(I1
(I1
tp12138
g12
I00
S'<\x01\x114\xa4F\x89A'
p12139
tp12140
bsS'1364'
p12141
g2
(g3
(I0
tp12142
g5
tp12143
Rp12144
(I1
(I1
tp12145
g12
I00
S'<5^|\xc8`\x96A'
p12146
tp12147
bsS'1365'
p12148
g2
(g3
(I0
tp12149
g5
tp12150
Rp12151
(I1
(I1
tp12152
g12
I00
S'\x1f\x97\x90\x11\x88\xa8\xb0A'
p12153
tp12154
bsS'476'
p12155
g2
(g3
(I0
tp12156
g5
tp12157
Rp12158
(I1
(I1
tp12159
g12
I00
S':\xea\x9ca/RaA'
p12160
tp12161
bsS'477'
p12162
g2
(g3
(I0
tp12163
g5
tp12164
Rp12165
(I1
(I1
tp12166
g12
I00
S'\x02i\r1\xe1C\x81A'
p12167
tp12168
bsS'474'
p12169
g2
(g3
(I0
tp12170
g5
tp12171
Rp12172
(I1
(I1
tp12173
g12
I00
S'\x80\x927\xb6\xd1)\x8cA'
p12174
tp12175
bsS'1361'
p12176
g2
(g3
(I0
tp12177
g5
tp12178
Rp12179
(I1
(I1
tp12180
g12
I00
S',\xd1\xb6;\x89R\x84A'
p12181
tp12182
bsS'478'
p12183
g2
(g3
(I0
tp12184
g5
tp12185
Rp12186
(I1
(I1
tp12187
g12
I00
S'vj\xb3\x02hF\xa2A'
p12188
tp12189
bsS'479'
p12190
g2
(g3
(I0
tp12191
g5
tp12192
Rp12193
(I1
(I1
tp12194
g12
I00
S'u1m\xb21\xda\\A'
p12195
tp12196
bsS'1368'
p12197
g2
(g3
(I0
tp12198
g5
tp12199
Rp12200
(I1
(I1
tp12201
g12
I00
S'\xc8L\x8f\x8e\xa2\x82\xadA'
p12202
tp12203
bsS'1369'
p12204
g2
(g3
(I0
tp12205
g5
tp12206
Rp12207
(I1
(I1
tp12208
g12
I00
S"\xb3;\xb0'\x16\xf0\x90A"
p12209
tp12210
bs.