(dp0
S'643'
p1
F4775014.184
sS'344'
p2
F255488953.4
sS'345'
p3
F19432522.09
sS'346'
p4
F33578982.53
sS'340'
p5
F182294586.8
sS'341'
p6
F22080277.9
sS'342'
p7
F80576558.59
sS'343'
p8
F98339674.58
sS'348'
p9
F273521107.0
sS'349'
p10
F252569978.3
sS'1653'
p11
F112259.5145
sS'298'
p12
F144653016.9
sS'299'
p13
F9250362.577
sS'296'
p14
F15636425.91
sS'297'
p15
F15128619.4
sS'294'
p16
F12793342.11
sS'295'
p17
F30867664.35
sS'292'
p18
F872476088.1
sS'293'
p19
F18855066.34
sS'290'
p20
F10374503.37
sS'291'
p21
F78795925.41
sS'271'
p22
F15649745.31
sS'272'
p23
F220303491.6
sS'273'
p24
F3825930.27
sS'274'
p25
F5980991.206
sS'275'
p26
F40162193.08
sS'276'
p27
F16397529.28
sS'277'
p28
F19279176.89
sS'278'
p29
F59129975.11
sS'279'
p30
F46139555.58
sS'1780'
p31
F308954.7099
sS'1132'
p32
F6979041.044
sS'1781'
p33
F1310131.939
sS'1004'
p34
F30287002.41
sS'108'
p35
F624635662.6
sS'109'
p36
F1524531376.0
sS'102'
p37
F102038658.7
sS'103'
p38
F616208103.1
sS'100'
p39
F377450409.3
sS'101'
p40
F106172780.2
sS'106'
p41
F670839554.5
sS'107'
p42
F63501270.67
sS'104'
p43
F13811310.09
sS'105'
p44
F2792795460.0
sS'1212'
p45
F144297137.5
sS'1213'
p46
F673639.5283
sS'1001'
p47
F1778775.821
sS'1375'
p48
F15832.57184
sS'1374'
p49
F2969899.629
sS'99'
p50
F3605589783.0
sS'98'
p51
F4056746465.0
sS'91'
p52
F12878792.97
sS'90'
p53
F17571298.24
sS'93'
p54
F298749569.9
sS'92'
p55
F5990502.024
sS'94'
p56
F15934464.66
sS'97'
p57
F3214781175.0
sS'96'
p58
F1372210448.0
sS'1623'
p59
F9655244.043
sS'1622'
p60
F6275287.163
sS'1621'
p61
F2407054.686
sS'1620'
p62
F314197.1703
sS'1627'
p63
F687798.7969
sS'1626'
p64
F1074120.54
sS'1625'
p65
F3850611.944
sS'1624'
p66
F613954.4063
sS'1629'
p67
F27757879.59
sS'1628'
p68
F218629.1825
sS'559'
p69
F417387159.3
sS'558'
p70
F194027733.0
sS'1217'
p71
F852438.0856
sS'555'
p72
F3731540.577
sS'557'
p73
F170011731.8
sS'556'
p74
F82747595.91
sS'551'
p75
F522955532.0
sS'550'
p76
F17911920.33
sS'553'
p77
F819566521.5
sS'552'
p78
F8756010.817
sS'1439'
p79
F687882.413
sS'1199'
p80
F80261848.77
sS'1198'
p81
F11934744.84
sS'1193'
p82
F25481975.36
sS'1195'
p83
F7020600.844
sS'1194'
p84
F1077169023.0
sS'1197'
p85
F1443436.41
sS'1196'
p86
F18383120.9
sS'1759'
p87
F1737169.141
sS'1758'
p88
F99610.92256
sS'1757'
p89
F157141281.8
sS'1756'
p90
F3368550.682
sS'1755'
p91
F17412732.6
sS'1754'
p92
F2525077.379
sS'1753'
p93
F11827996.63
sS'1752'
p94
F691609.9279
sS'1751'
p95
F620557.3903
sS'1750'
p96
F380614.0038
sS'1177'
p97
F7673149.673
sS'1176'
p98
F3167672.83
sS'1175'
p99
F15438379.33
sS'1174'
p100
F28823546.45
sS'1173'
p101
F15720073.82
sS'1172'
p102
F15050545.28
sS'1171'
p103
F26596987.03
sS'1170'
p104
F4158167.921
sS'1179'
p105
F10249895.28
sS'1178'
p106
F36808756.6
sS'511'
p107
F73701524.16
sS'1006'
p108
F2763914.269
sS'1285'
p109
F216815341.7
sS'1284'
p110
F1169169.155
sS'1287'
p111
F3218477.853
sS'1286'
p112
F54397496.63
sS'1281'
p113
F5515350.039
sS'1280'
p114
F4845503.698
sS'1283'
p115
F1110504.432
sS'1282'
p116
F149087533.3
sS'1003'
p117
F19866604.7
sS'879'
p118
F5880454.109
sS'1289'
p119
F2379700.968
sS'1288'
p120
F3488654.153
sS'514'
p121
F155204303.0
sS'1579'
p122
F3263778.331
sS'1578'
p123
F3724644.817
sS'689'
p124
F4222291.073
sS'688'
p125
F6551279.233
sS'1573'
p126
F19656082.28
sS'684'
p127
F4370047.2
sS'687'
p128
F22963475.01
sS'1570'
p129
F6343376.919
sS'681'
p130
F425045191.1
sS'1576'
p131
F319848.2532
sS'683'
p132
F99256214.72
sS'682'
p133
F25539153.29
sS'1348'
p134
F2721955.246
sS'1226'
p135
F4428685.656
sS'1225'
p136
F307771.29
sS'627'
p137
F3997102.902
sS'626'
p138
F1242141575.0
sS'1221'
p139
F5107446.535
sS'1220'
p140
F24450614.37
sS'1371'
p141
F620641.3049
sS'406'
p142
F102571073.1
sS'1373'
p143
F12416542.72
sS'1372'
p144
F121224549.3
sS'403'
p145
F502459256.2
sS'402'
p146
F10292132.28
sS'401'
p147
F58335095.22
sS'400'
p148
F82747018.51
sS'1379'
p149
F34654041.44
sS'1378'
p150
F8094798.07
sS'409'
p151
F882108994.6
sS'408'
p152
F485538414.0
sS'1343'
p153
F114237.5432
sS'454'
p154
F908560420.3
sS'455'
p155
F537830190.9
sS'1346'
p156
F55681926.25
sS'1018'
p157
F61744736.79
sS'1245'
p158
F30633.62891
sS'379'
p159
F118236378.8
sS'378'
p160
F237809859.1
sS'647'
p161
F28324096.81
sS'371'
p162
F548660136.7
sS'370'
p163
F127491428.2
sS'373'
p164
F317925051.5
sS'372'
p165
F56691421.54
sS'375'
p166
F1633431799.0
sS'374'
p167
F598315031.4
sS'377'
p168
F29755378.06
sS'376'
p169
F7797494.986
sS'1019'
p170
F2657107.309
sS'1244'
p171
F7745833.239
sS'393'
p172
F1904502.866
sS'392'
p173
F66629157.55
sS'391'
p174
F152651826.9
sS'390'
p175
F1175444079.0
sS'397'
p176
F16333957.56
sS'396'
p177
F1562351.129
sS'395'
p178
F7650226.43
sS'394'
p179
F7902397.901
sS'399'
p180
F296925.7154
sS'398'
p181
F18143686.67
sS'245'
p182
F15746398.32
sS'244'
p183
F107243724.2
sS'247'
p184
F6471070.39
sS'246'
p185
F34801340.81
sS'241'
p186
F55761991.32
sS'240'
p187
F839514315.2
sS'243'
p188
F59293290.89
sS'242'
p189
F359237788.8
sS'249'
p190
F365163513.9
sS'248'
p191
F1115086664.0
sS'\xef\xbb\xbf965'
p192
F18957226.65
sS'179'
p193
F2085238284.0
sS'178'
p194
F1213118.015
sS'177'
p195
F120006474.5
sS'176'
p196
F418725644.9
sS'175'
p197
F55743709.71
sS'174'
p198
F3830157.294
sS'173'
p199
F25770852.05
sS'172'
p200
F64394233.8
sS'171'
p201
F2261167597.0
sS'170'
p202
F198147594.5
sS'1502'
p203
F2023467.961
sS'657'
p204
F51901.07529
sS'1500'
p205
F836871.0624
sS'1501'
p206
F5002689.909
sS'652'
p207
F9027467.027
sS'653'
p208
F1281758.667
sS'1367'
p209
F12974954.61
sS'1505'
p210
F17912031.87
sS'659'
p211
F7134107.621
sS'1362'
p212
F55629.39833
sS'1618'
p213
F357099.1762
sS'1619'
p214
F975201.5065
sS'1616'
p215
F483050.3273
sS'1617'
p216
F355000.1512
sS'1615'
p217
F276742.5881
sS'1612'
p218
F1158220.468
sS'1613'
p219
F8313473.681
sS'1610'
p220
F9095405.077
sS'1611'
p221
F1974981.17
sS'1114'
p222
F24257195.78
sS'1768'
p223
F2436749.296
sS'1762'
p224
F2601715.781
sS'1763'
p225
F194458036.2
sS'1760'
p226
F284770.0454
sS'1761'
p227
F451062.8664
sS'1766'
p228
F1525670.155
sS'1767'
p229
F5425728.413
sS'1764'
p230
F35966568.53
sS'1765'
p231
F3041312.423
sS'1142'
p232
F657355.8999
sS'1143'
p233
F36314496.13
sS'1140'
p234
F104690721.2
sS'1141'
p235
F13939238.77
sS'1146'
p236
F13532666.99
sS'1147'
p237
F4104671.677
sS'1144'
p238
F11511110.51
sS'1145'
p239
F2180787.521
sS'1148'
p240
F26385765.69
sS'1149'
p241
F9590386.784
sS'692'
p242
F3248675.406
sS'1547'
p243
F713851.3077
sS'1544'
p244
F10222015.82
sS'1545'
p245
F2718155.3
sS'1542'
p246
F2825634.501
sS'1543'
p247
F39301273.02
sS'694'
p248
F999268087.0
sS'1541'
p249
F2965546.752
sS'698'
p250
F10470688.1
sS'699'
p251
F123231347.4
sS'1548'
p252
F1696467.202
sS'1549'
p253
F7242719.221
sS'542'
p254
F67126560.27
sS'543'
p255
F41267774.46
sS'540'
p256
F342569598.4
sS'541'
p257
F105313635.6
sS'547'
p258
F474813989.0
sS'544'
p259
F935603364.4
sS'545'
p260
F2733898.67
sS'548'
p261
F40851220.76
sS'549'
p262
F29879616.44
sS'760'
p263
F1019824.384
sS'1783'
p264
F2222187.749
sS'766'
p265
F5096408.785
sS'1785'
p266
F1824436.646
sS'1787'
p267
F619058.5161
sS'414'
p268
F25825426.15
sS'415'
p269
F108613014.5
sS'416'
p270
F13986242.21
sS'417'
p271
F72460905.47
sS'410'
p272
F25617329.44
sS'411'
p273
F104224974.7
sS'412'
p274
F1376445.04
sS'413'
p275
F44821303.27
sS'1385'
p276
F1474741.671
sS'1386'
p277
F423036.101
sS'1387'
p278
F1153888.275
sS'1380'
p279
F885836.8624
sS'419'
p280
F63025112.09
sS'1382'
p281
F302907.814
sS'1383'
p282
F541834.5024
sS'369'
p283
F158042252.5
sS'366'
p284
F150098333.8
sS'367'
p285
F387989154.5
sS'364'
p286
F91735853.12
sS'365'
p287
F1501968.2
sS'362'
p288
F39516782.49
sS'363'
p289
F314363909.8
sS'360'
p290
F360581313.5
sS'361'
p291
F175348166.5
sS'380'
p292
F11828442.74
sS'381'
p293
F20686550.02
sS'382'
p294
F47558870.55
sS'383'
p295
F3540509.561
sS'384'
p296
F50768470.44
sS'385'
p297
F36919726635.0
sS'386'
p298
F1131489019.0
sS'387'
p299
F2111059.797
sS'388'
p300
F59732124.86
sS'389'
p301
F19136171.72
sS'1253'
p302
F3967457.613
sS'258'
p303
F12683495971.0
sS'252'
p304
F1146669291.0
sS'253'
p305
F951885522.1
sS'250'
p306
F599286311.8
sS'251'
p307
F58846191161.0
sS'256'
p308
F1490481236.0
sS'257'
p309
F55331643.96
sS'254'
p310
F117919687.3
sS'255'
p311
F175240578.4
sS'1849'
p312
F2691913.741
sS'1848'
p313
F75351751.12
sS'168'
p314
F439188348.2
sS'169'
p315
F18335651.14
sS'164'
p316
F68211852.05
sS'165'
p317
F4911317.303
sS'166'
p318
F1127453962.0
sS'167'
p319
F8164766.235
sS'160'
p320
F19089911.58
sS'161'
p321
F126456330.2
sS'162'
p322
F120410571.0
sS'163'
p323
F133947000000.0
sS'908'
p324
F1783452.9
sS'1840'
p325
F472859.4702
sS'678'
p326
F153533276.4
sS'679'
p327
F15327951.16
sS'1814'
p328
F7782959.467
sS'1815'
p329
F2835114.432
sS'1816'
p330
F765184.6458
sS'1817'
p331
F5758678.718
sS'1810'
p332
F2972741.361
sS'1811'
p333
F14141238.83
sS'1812'
p334
F5153620.521
sS'1813'
p335
F2248264.581
sS'1818'
p336
F8535529.452
sS'1819'
p337
F1976071.409
sS'1098'
p338
F171032.2753
sS'671'
p339
F85495968.0
sS'1609'
p340
F673515.8049
sS'1608'
p341
F50441856.33
sS'1601'
p342
F389423.0594
sS'1600'
p343
F12139665.19
sS'1603'
p344
F2494195.037
sS'1602'
p345
F5997489.862
sS'1604'
p346
F21546858.14
sS'1607'
p347
F3870971.148
sS'808'
p348
F8710461.631
sS'803'
p349
F14219486.37
sS'802'
p350
F18717627.27
sS'801'
p351
F43986804.11
sS'800'
p352
F5223995.429
sS'807'
p353
F15085862.09
sS'806'
p354
F204585142.3
sS'805'
p355
F198981705.1
sS'804'
p356
F1737323.266
sS'1775'
p357
F1016743.908
sS'1774'
p358
F247740.7681
sS'1777'
p359
F270804.1863
sS'1776'
p360
F926382.7109
sS'1084'
p361
F10574193.47
sS'1770'
p362
F754405.1057
sS'1772'
p363
F5819075.944
sS'1779'
p364
F33156.68752
sS'1778'
p365
F1621983.159
sS'1159'
p366
F56076076.25
sS'1158'
p367
F23566306.49
sS'1155'
p368
F7188611.522
sS'1154'
p369
F99430910.42
sS'1157'
p370
F13708449.33
sS'1156'
p371
F54293805.52
sS'1151'
p372
F4624331.437
sS'1150'
p373
F1152947.021
sS'1153'
p374
F13721108.78
sS'1152'
p375
F8419611.207
sS'1555'
p376
F5655989.12
sS'58'
p377
F7289178.843
sS'1551'
p378
F3114888.192
sS'1553'
p379
F9757478.978
sS'1552'
p380
F12082012.62
sS'59'
p381
F81255155.5
sS'1554'
p382
F7699488.836
sS'1557'
p383
F57233003.4
sS'1556'
p384
F890503.0874
sS'55'
p385
F10682034374.0
sS'54'
p386
F68454320.7
sS'57'
p387
F86137961.12
sS'56'
p388
F25639208.73
sS'51'
p389
F2277523874.0
sS'50'
p390
F256717383.4
sS'53'
p391
F463316872.6
sS'52'
p392
F85672806.0
sS'537'
p393
F704880559.2
sS'536'
p394
F17262422.84
sS'535'
p395
F1707982.953
sS'534'
p396
F83485043.02
sS'533'
p397
F356530243.7
sS'532'
p398
F39054314.99
sS'531'
p399
F477491171.7
sS'530'
p400
F119416984.1
sS'539'
p401
F316515646.9
sS'1558'
p402
F20409013.46
sS'429'
p403
F215738322.4
sS'1399'
p404
F3922704.468
sS'1398'
p405
F214746.2774
sS'421'
p406
F69180368.75
sS'420'
p407
F10140546.35
sS'1395'
p408
F1499419.959
sS'422'
p409
F16865041.63
sS'425'
p410
F1997961.532
sS'1392'
p411
F1453189.264
sS'427'
p412
F42873598.29
sS'426'
p413
F3179620.366
sS'229'
p414
F263131128.5
sS'228'
p415
F106428700.1
sS'227'
p416
F212383994.5
sS'226'
p417
F68312673.04
sS'225'
p418
F39580334.61
sS'224'
p419
F158986498.2
sS'223'
p420
F4434462.417
sS'222'
p421
F928494636.2
sS'151'
p422
F22969617.34
sS'150'
p423
F179540684.9
sS'153'
p424
F932996.0119
sS'152'
p425
F1973024817.0
sS'155'
p426
F1901784332.0
sS'154'
p427
F11533464.51
sS'157'
p428
F7284276.456
sS'156'
p429
F5745297.64
sS'159'
p430
F175422157.0
sS'158'
p431
F76140000.9
sS'1807'
p432
F5899328.095
sS'1806'
p433
F3763694.69
sS'1805'
p434
F33575.04251
sS'1804'
p435
F13937303.49
sS'1803'
p436
F1291853.273
sS'1801'
p437
F6003191.635
sS'1800'
p438
F966793.0309
sS'1809'
p439
F1513852.817
sS'1808'
p440
F376641.0635
sS'1256'
p441
F203251114.4
sS'690'
p442
F296209329.9
sS'1525'
p443
F2900481.664
sS'1526'
p444
F13302250.04
sS'818'
p445
F8261619.76
sS'819'
p446
F3510083.263
sS'1527'
p447
F112118405.7
sS'810'
p448
F11443353.36
sS'811'
p449
F229078872.1
sS'812'
p450
F14341920.13
sS'813'
p451
F10621119.12
sS'814'
p452
F26642711.75
sS'815'
p453
F93257666.44
sS'816'
p454
F4983086.853
sS'817'
p455
F486130831.4
sS'1250'
p456
F64071243.2
sS'1251'
p457
F58556811.3
sS'1490'
p458
F97308.13194
sS'1397'
p459
F55956768.82
sS'1492'
p460
F46939782.85
sS'1493'
p461
F106656771.2
sS'1494'
p462
F901966.3007
sS'1497'
p463
F18433504.79
sS'1498'
p464
F5701957.408
sS'1499'
p465
F1753661.101
sS'423'
p466
F24461834.77
sS'1700'
p467
F3484487.339
sS'1701'
p468
F699384.9348
sS'1702'
p469
F21892926.64
sS'1703'
p470
F805942.3194
sS'1704'
p471
F647586.346
sS'1705'
p472
F11734374.47
sS'1706'
p473
F198587.4091
sS'1707'
p474
F181534.9381
sS'1708'
p475
F1475347.413
sS'1393'
p476
F4761098.958
sS'424'
p477
F8178679.37
sS'1391'
p478
F88229.57978
sS'1128'
p479
F14758871.34
sS'1129'
p480
F891178.7024
sS'1120'
p481
F3728617.534
sS'1121'
p482
F2564410.293
sS'1122'
p483
F48619286.76
sS'1123'
p484
F40589213.02
sS'1124'
p485
F6774310.344
sS'1125'
p486
F8604326.784
sS'1126'
p487
F51188463.47
sS'1127'
p488
F17616730.38
sS'524'
p489
F4941568.854
sS'525'
p490
F98757766.83
sS'526'
p491
F21055588811.0
sS'527'
p492
F1350844566.0
sS'520'
p493
F50694649.71
sS'521'
p494
F350656588.6
sS'522'
p495
F1036635061.0
sS'1014'
p496
F12811093.34
sS'695'
p497
F642858548.3
sS'1017'
p498
F23932470.31
sS'529'
p499
F251548346.6
sS'1012'
p500
F4845989.589
sS'1013'
p501
F6472398.236
sS'1234'
p502
F28782217.01
sS'1235'
p503
F226359.8851
sS'1237'
p504
F11466672.16
sS'1230'
p505
F214908888.5
sS'1232'
p506
F46541984.23
sS'1233'
p507
F1076158.842
sS'1238'
p508
F7265985.303
sS'1239'
p509
F10623110.63
sS'438'
p510
F8884342.354
sS'439'
p511
F14919664.31
sS'436'
p512
F311026982.6
sS'437'
p513
F2353012.386
sS'434'
p514
F154174921.0
sS'435'
p515
F123948236.5
sS'432'
p516
F495868198.5
sS'433'
p517
F236856394.9
sS'430'
p518
F179188577.7
sS'431'
p519
F45944267.78
sS'238'
p520
F145009419.1
sS'239'
p521
F24923087.16
sS'234'
p522
F115587522.3
sS'235'
p523
F8649748.497
sS'236'
p524
F46138947.96
sS'237'
p525
F3549147.1
sS'230'
p526
F398947861.4
sS'231'
p527
F23552647.21
sS'232'
p528
F585177178.7
sS'233'
p529
F11779575.84
sS'1'
p530
F9107460837.0
sS'146'
p531
F90537111.67
sS'144'
p532
F5407825675.0
sS'145'
p533
F31833651919.0
sS'142'
p534
F943635753.8
sS'143'
p535
F25316916116.0
sS'140'
p536
F24060759331.0
sS'141'
p537
F10064941801.0
sS'148'
p538
F26315219.46
sS'149'
p539
F239274741.1
sS'1832'
p540
F260147.2711
sS'1833'
p541
F1942548.777
sS'1830'
p542
F7976116.023
sS'1831'
p543
F146620.3237
sS'1836'
p544
F112373.0445
sS'1837'
p545
F1092283.526
sS'1834'
p546
F1219219.591
sS'1835'
p547
F792709.5694
sS'1838'
p548
F3033299.889
sS'1839'
p549
F511983.0585
sS'939'
p550
F206694467.3
sS'933'
p551
F104501833.8
sS'932'
p552
F60367767.75
sS'931'
p553
F150274481.1
sS'930'
p554
F32720893.71
sS'937'
p555
F19191587.48
sS'936'
p556
F6299687.862
sS'935'
p557
F46013037.65
sS'934'
p558
F151582925.2
sS'829'
p559
F256867070.6
sS'828'
p560
F21538944.13
sS'825'
p561
F6002739.664
sS'824'
p562
F78010444.6
sS'827'
p563
F106918069.0
sS'826'
p564
F176521459.7
sS'821'
p565
F18325385.28
sS'820'
p566
F15891151.5
sS'823'
p567
F191890726.0
sS'822'
p568
F23054336.81
sS'1536'
p569
F2696985.234
sS'1482'
p570
F34042879.41
sS'1481'
p571
F937786.6446
sS'1487'
p572
F6666866.282
sS'1486'
p573
F722706.53
sS'1485'
p574
F2420931.586
sS'1484'
p575
F192245.4866
sS'1489'
p576
F1861059.109
sS'1488'
p577
F236988.4443
sS'1713'
p578
F1803396.067
sS'1712'
p579
F24248689.63
sS'795'
p580
F8750004213.0
sS'794'
p581
F1698195.936
sS'793'
p582
F314192592.1
sS'792'
p583
F9714874.395
sS'1715'
p584
F10343703.61
sS'790'
p585
F15506102.66
sS'1719'
p586
F212409.084
sS'1718'
p587
F9881836.667
sS'799'
p588
F5285773.127
sS'798'
p589
F13896946.49
sS'613'
p590
F22945733.93
sS'1272'
p591
F74541842.78
sS'1139'
p592
F1339832.138
sS'1138'
p593
F17844490.64
sS'1133'
p594
F104312728.8
sS'616'
p595
F19954919.64
sS'1131'
p596
F32919594.68
sS'1130'
p597
F10732758.04
sS'1137'
p598
F3740173.965
sS'1136'
p599
F1649660.98
sS'1135'
p600
F355379237.7
sS'1134'
p601
F121655023.0
sS'1276'
p602
F219215781.7
sS'1277'
p603
F100044319.0
sS'519'
p604
F34193760.71
sS'518'
p605
F120603716.7
sS'1009'
p606
F27330981.37
sS'1008'
p607
F168643425.8
sS'1007'
p608
F4909123.242
sS'510'
p609
F1316818222.0
sS'513'
p610
F17219849.7
sS'512'
p611
F1259461.921
sS'515'
p612
F145148248.9
sS'1002'
p613
F15526435.35
sS'517'
p614
F311767897.4
sS'1000'
p615
F15609286.33
sS'1227'
p616
F11860643.78
sS'622'
p617
F520827526.1
sS'621'
p618
F74701881.29
sS'1224'
p619
F4396011.809
sS'1223'
p620
F135961.9083
sS'1222'
p621
F56162547.17
sS'625'
p622
F5982324.821
sS'624'
p623
F43514432.17
sS'628'
p624
F34952996.9
sS'1229'
p625
F73848622.2
sS'1228'
p626
F1796325.449
sS'2'
p627
F1718513339.0
sS'11'
p628
F174766016.1
sS'10'
p629
F18147685.47
sS'13'
p630
F200243818.2
sS'12'
p631
F26349960.1
sS'15'
p632
F52168908.95
sS'14'
p633
F405974409.4
sS'17'
p634
F169524586.3
sS'16'
p635
F83469333.6
sS'19'
p636
F384365961.9
sS'18'
p637
F10701394.25
sS'201'
p638
F25121.86325
sS'200'
p639
F76898259.05
sS'203'
p640
F175713819.5
sS'202'
p641
F883098626.1
sS'205'
p642
F777307744.6
sS'204'
p643
F390205870.2
sS'207'
p644
F388991.1723
sS'206'
p645
F187698307.2
sS'209'
p646
F1033420.375
sS'208'
p647
F8997082.988
sS'685'
p648
F8950994.379
sS'1572'
p649
F1649732.312
sS'1571'
p650
F7217374.142
sS'686'
p651
F1872982.949
sS'1577'
p652
F23175039.26
sS'1575'
p653
F445238.9033
sS'1574'
p654
F1940159.103
sS'1829'
p655
F4127013.821
sS'1825'
p656
F5886700.336
sS'1824'
p657
F1185363.942
sS'1827'
p658
F7542482.276
sS'1826'
p659
F13774152.95
sS'1821'
p660
F6632426.89
sS'1820'
p661
F89681225.43
sS'1823'
p662
F5807276.833
sS'1822'
p663
F145025.0418
sS'928'
p664
F139983332.9
sS'929'
p665
F28871546.42
sS'921'
p666
F2005793.233
sS'922'
p667
F4791495.704
sS'923'
p668
F60666.88629
sS'924'
p669
F23541163.01
sS'925'
p670
F41760427.0
sS'926'
p671
F17324983.5
sS'927'
p672
F64423865.95
sS'832'
p673
F6193782.576
sS'833'
p674
F821203.792
sS'830'
p675
F67168962.74
sS'831'
p676
F2969627.177
sS'836'
p677
F16296354.98
sS'837'
p678
F982313.0329
sS'834'
p679
F41173128.75
sS'835'
p680
F10410888.73
sS'838'
p681
F13311848.02
sS'3'
p682
F180715968.1
sS'784'
p683
F60481180.52
sS'785'
p684
F2708790.624
sS'786'
p685
F4789201.057
sS'780'
p686
F28126038.53
sS'781'
p687
F139903557.3
sS'782'
p688
F36495107.59
sS'1729'
p689
F12395901.73
sS'1726'
p690
F1540232.506
sS'1727'
p691
F1801029.483
sS'1724'
p692
F488362.2998
sS'1725'
p693
F1036795.579
sS'788'
p694
F58178717.08
sS'789'
p695
F14722124.02
sS'1720'
p696
F2715775.233
sS'60'
p697
F293758361.4
sS'61'
p698
F2401520521.0
sS'62'
p699
F84060533.37
sS'63'
p700
F7651239501.0
sS'64'
p701
F663846726.0
sS'65'
p702
F2796937978.0
sS'66'
p703
F456285727.3
sS'67'
p704
F171186557.3
sS'68'
p705
F322874495.5
sS'69'
p706
F31131509.99
sS'407'
p707
F71580620.19
sS'1588'
p708
F181324431.1
sS'1589'
p709
F85690127.74
sS'1370'
p710
F1576020.219
sS'1582'
p711
F10153446.13
sS'1583'
p712
F6573245.061
sS'1580'
p713
F14527386.92
sS'1581'
p714
F8676108.607
sS'1586'
p715
F2340160.957
sS'405'
p716
F3494650.866
sS'1584'
p717
F765486.4908
sS'1585'
p718
F12674496.48
sS'1038'
p719
F8390973.328
sS'404'
p720
F930575014.1
sS'508'
p721
F597085011.2
sS'509'
p722
F42563501.51
sS'1032'
p723
F43632599.64
sS'1033'
p724
F1072662932.0
sS'1030'
p725
F18376032.41
sS'1031'
p726
F15826028.83
sS'502'
p727
F52170009.4
sS'503'
p728
F5109922.899
sS'500'
p729
F500511464.3
sS'501'
p730
F784987095.9
sS'630'
p731
F5547914.27
sS'631'
p732
F85309442.47
sS'1210'
p733
F35131952.35
sS'1211'
p734
F216928603.2
sS'634'
p735
F103964644.8
sS'1377'
p736
F9200732.696
sS'636'
p737
F75549003.48
sS'637'
p738
F29031172.81
sS'638'
p739
F166185975.9
sS'639'
p740
F139811811.8
sS'1218'
p741
F6099383.892
sS'1376'
p742
F30183712.05
sS'1394'
p743
F2130872.154
sS'465'
p744
F1137184.747
sS'1728'
p745
F180869.6696
sS'783'
p746
F2755649.174
sS'1106'
p747
F137590844.9
sS'1107'
p748
F1094510.079
sS'1104'
p749
F621257.7223
sS'1457'
p750
F3151905.744
sS'1450'
p751
F31142369.34
sS'1451'
p752
F11422105.78
sS'1452'
p753
F4964971.655
sS'1453'
p754
F6300820.257
sS'1458'
p755
F416497.1828
sS'1459'
p756
F7458695.077
sS'1108'
p757
F54061373.49
sS'1109'
p758
F815810.8374
sS'1722'
p759
F1606844.036
sS'1723'
p760
F20180911.18
sS'466'
p761
F14406348.13
sS'216'
p762
F950956081.2
sS'217'
p763
F38824328.69
sS'214'
p764
F83130057.94
sS'215'
p765
F963720483.3
sS'212'
p766
F105434200.6
sS'213'
p767
F160006841.7
sS'210'
p768
F1303919219.0
sS'211'
p769
F83598715.49
sS'1530'
p770
F4843289.47
sS'218'
p771
F6568263.832
sS'219'
p772
F44198293.76
sS'462'
p773
F867324.0022
sS'4'
p774
F656346082.0
sS'1858'
p775
F612054.2612
sS'1859'
p776
F175897.9069
sS'1850'
p777
F1974411.554
sS'1851'
p778
F62582.25537
sS'1853'
p779
F315018.2657
sS'1854'
p780
F894061.5148
sS'1855'
p781
F1479476.553
sS'1856'
p782
F5726856.279
sS'1857'
p783
F1591401.478
sS'919'
p784
F7212948.555
sS'918'
p785
F22823361.49
sS'915'
p786
F18355509.6
sS'914'
p787
F29438692.6
sS'917'
p788
F2418848.936
sS'916'
p789
F4529405.112
sS'911'
p790
F1770103.698
sS'910'
p791
F794556.5068
sS'913'
p792
F2547618.549
sS'912'
p793
F8025528.42
sS'847'
p794
F1327666.538
sS'846'
p795
F3015893.794
sS'845'
p796
F50220207.01
sS'844'
p797
F5213818.857
sS'843'
p798
F85183335.7
sS'842'
p799
F61647777.55
sS'841'
p800
F4916963.722
sS'840'
p801
F50197231.56
sS'849'
p802
F6236378.067
sS'848'
p803
F26891558.58
sS'664'
p804
F299094.3111
sS'1587'
p805
F90106378.32
sS'1739'
p806
F5783410.553
sS'1738'
p807
F3891134.636
sS'1731'
p808
F279415.3715
sS'1730'
p809
F16458212.04
sS'1733'
p810
F106406.3387
sS'1732'
p811
F2373912.324
sS'662'
p812
F157528382.0
sS'1734'
p813
F2160737.855
sS'1737'
p814
F6414671.563
sS'1736'
p815
F321384.3996
sS'1039'
p816
F4440786.119
sS'753'
p817
F1705258.028
sS'752'
p818
F2150322.531
sS'751'
p819
F11766174.47
sS'750'
p820
F400799876.4
sS'757'
p821
F9061018.852
sS'755'
p822
F1569568.053
sS'754'
p823
F12129706.31
sS'759'
p824
F91500948.87
sS'758'
p825
F156817922.6
sS'1595'
p826
F2267674.03
sS'1594'
p827
F1022106.277
sS'1597'
p828
F4795566.359
sS'1596'
p829
F11961353.31
sS'1591'
p830
F4514182.982
sS'1590'
p831
F106890251.4
sS'1593'
p832
F27478718.36
sS'1592'
p833
F28121070.61
sS'1599'
p834
F2501803.002
sS'1598'
p835
F6843098.795
sS'1025'
p836
F6275556.634
sS'1024'
p837
F1612167.545
sS'1027'
p838
F139421997.6
sS'505'
p839
F3260153.39
sS'1020'
p840
F475623.8351
sS'1023'
p841
F7755146.312
sS'1022'
p842
F10598587.79
sS'1036'
p843
F590945.4156
sS'1029'
p844
F5819947.74
sS'1028'
p845
F3057658363.0
sS'1037'
p846
F1049172.603
sS'1034'
p847
F12005457.17
sS'1035'
p848
F95149810.44
sS'605'
p849
F15777134451.0
sS'604'
p850
F3191688.122
sS'607'
p851
F1433208.01
sS'606'
p852
F205928453.8
sS'1209'
p853
F1855972.61
sS'600'
p854
F583367.506
sS'603'
p855
F1301708.006
sS'602'
p856
F3960667.037
sS'1205'
p857
F12096032.51
sS'1207'
p858
F3481511.58
sS'1206'
p859
F16123461.29
sS'609'
p860
F222913377.6
sS'1200'
p861
F33132927.06
sS'1203'
p862
F20078847.54
sS'1202'
p863
F978031.5682
sS'633'
p864
F1985056.477
sS'1216'
p865
F629645.3465
sS'635'
p866
F1068679.548
sS'1214'
p867
F11793.30285
sS'1215'
p868
F32436101.53
sS'1447'
p869
F44024119.21
sS'1110'
p870
F5298003.692
sS'1113'
p871
F8359184.559
sS'1444'
p872
F16047054.75
sS'1443'
p873
F15982187.44
sS'1442'
p874
F26968121.29
sS'1441'
p875
F306338.406
sS'1440'
p876
F7415557.227
sS'1119'
p877
F6582258.451
sS'1118'
p878
F2062020.283
sS'467'
p879
F5290985.021
sS'1449'
p880
F9605335.187
sS'1448'
p881
F78171866.72
sS'1219'
p882
F135047667.6
sS'1357'
p883
F14255357.69
sS'1356'
p884
F2454519.171
sS'1355'
p885
F12665189.08
sS'489'
p886
F787735.868
sS'488'
p887
F72591137.85
sS'487'
p888
F31385491.94
sS'486'
p889
F13825632.33
sS'485'
p890
F731830680.3
sS'484'
p891
F553232684.8
sS'483'
p892
F2080368.252
sS'482'
p893
F3767375.41
sS'481'
p894
F8134365.016
sS'480'
p895
F30815600.99
sS'199'
p896
F11372606024.0
sS'198'
p897
F232129202.7
sS'195'
p898
F435018939.0
sS'194'
p899
F21110698045.0
sS'197'
p900
F68746118320.0
sS'196'
p901
F2146229721.0
sS'191'
p902
F483964854.0
sS'190'
p903
F215121909.0
sS'193'
p904
F277542832.3
sS'192'
p905
F533924989.5
sS'1455'
p906
F10318741.22
sS'1456'
p907
F26708080.51
sS'1105'
p908
F48408714.69
sS'1102'
p909
F3686069.178
sS'1103'
p910
F4372681.29
sS'1100'
p911
F1067954.96
sS'1101'
p912
F5203537.745
sS'902'
p913
F4639051.823
sS'903'
p914
F2370045.517
sS'900'
p915
F49988884.72
sS'901'
p916
F1717480.379
sS'906'
p917
F21259888.34
sS'907'
p918
F29199070.42
sS'904'
p919
F436924373.2
sS'905'
p920
F25289103.45
sS'1843'
p921
F129381.1466
sS'1842'
p922
F3011028.454
sS'1841'
p923
F38322799.31
sS'909'
p924
F10668383.97
sS'1847'
p925
F380747.0997
sS'1846'
p926
F2173549.048
sS'1845'
p927
F212893968.7
sS'1844'
p928
F1952992.548
sS'856'
p929
F81964.83773
sS'857'
p930
F12371393.9
sS'850'
p931
F1358253.604
sS'851'
p932
F19620983.53
sS'852'
p933
F7277431.463
sS'853'
p934
F12598001.94
sS'858'
p935
F7366741.309
sS'859'
p936
F65348920.55
sS'6'
p937
F5951388536.0
sS'740'
p938
F14223401.9
sS'741'
p939
F21174714.45
sS'743'
p940
F73558496.55
sS'744'
p941
F12781875.81
sS'746'
p942
F9048066.241
sS'747'
p943
F1067466.846
sS'748'
p944
F3117084.383
sS'749'
p945
F857397592.3
sS'1050'
p946
F113407961.3
sS'1051'
p947
F178244389.6
sS'1052'
p948
F3594719.445
sS'1053'
p949
F136459222.0
sS'1054'
p950
F78553658.89
sS'1055'
p951
F90366967.51
sS'1056'
p952
F180439913.8
sS'1057'
p953
F104062064.2
sS'1058'
p954
F1457031.525
sS'1059'
p955
F22681338.17
sS'1696'
p956
F41875373.88
sS'1697'
p957
F162180938.9
sS'1694'
p958
F6172354.932
sS'1695'
p959
F254148.875
sS'1692'
p960
F3600487.577
sS'1693'
p961
F1765822.669
sS'1690'
p962
F13725083.22
sS'1691'
p963
F3160568.943
sS'1791'
p964
F349495.559
sS'1698'
p965
F591785.2712
sS'1699'
p966
F1670486.349
sS'1278'
p967
F3909053.096
sS'1279'
p968
F3971582.591
sS'618'
p969
F101051080.7
sS'619'
p970
F4564609.494
sS'1270'
p971
F2527459.082
sS'1271'
p972
F144785555.0
sS'610'
p973
F308103731.8
sS'1273'
p974
F11957457.56
sS'1274'
p975
F2705577.198
sS'617'
p976
F17695214.99
sS'614'
p977
F129241949.7
sS'615'
p978
F35246687.23
sS'1795'
p979
F2616400.066
sS'1794'
p980
F621728.8449
sS'1491'
p981
F5621575.765
sS'1472'
p982
F1072747.58
sS'1473'
p983
F25512529.63
sS'1476'
p984
F1946253.13
sS'1477'
p985
F3980787.042
sS'1474'
p986
F837520.4914
sS'1475'
p987
F26618628.3
sS'1304'
p988
F67315347.41
sS'1305'
p989
F10147715.62
sS'1306'
p990
F9828931.931
sS'1307'
p991
F10310447.63
sS'1300'
p992
F14323592.59
sS'1301'
p993
F6388805.81
sS'1302'
p994
F4057276.993
sS'1303'
p995
F227924919.4
sS'1308'
p996
F3255883.721
sS'1309'
p997
F8598426.911
sS'498'
p998
F6730635.871
sS'499'
p999
F12866239.76
sS'494'
p1000
F992879464.9
sS'495'
p1001
F139866360.4
sS'496'
p1002
F77021076.68
sS'497'
p1003
F129065313.6
sS'490'
p1004
F294821302.0
sS'492'
p1005
F21482417.87
sS'493'
p1006
F135183461.0
sS'24'
p1007
F425200916.5
sS'25'
p1008
F18955207.85
sS'26'
p1009
F4040156102.0
sS'27'
p1010
F14147898.57
sS'20'
p1011
F19188062.56
sS'21'
p1012
F121645956.9
sS'22'
p1013
F446675322.3
sS'23'
p1014
F59546053.28
sS'29'
p1015
F50449211.0
sS'1709'
p1016
F649565.2839
sS'591'
p1017
F3356874.036
sS'590'
p1018
F7206576.333
sS'1085'
p1019
F494077.4269
sS'1876'
p1020
F455180.2911
sS'1877'
p1021
F469525.2197
sS'1874'
p1022
F785088.1435
sS'1875'
p1023
F647397.4952
sS'1872'
p1024
F2059440.82
sS'1873'
p1025
F1723612.207
sS'1870'
p1026
F1201807.26
sS'1871'
p1027
F754127.2582
sS'1083'
p1028
F7588853.382
sS'1878'
p1029
F62145.31819
sS'1879'
p1030
F3426076.531
sS'977'
p1031
F135881141.1
sS'976'
p1032
F39638035.09
sS'975'
p1033
F31844169.09
sS'974'
p1034
F121004812.5
sS'973'
p1035
F19424823.97
sS'972'
p1036
F2951785.831
sS'971'
p1037
F59416613.02
sS'970'
p1038
F2998298.506
sS'979'
p1039
F2284280877.0
sS'978'
p1040
F15615001.17
sS'182'
p1041
F294345626.9
sS'183'
p1042
F95621720.85
sS'180'
p1043
F164038128.4
sS'181'
p1044
F1871853.52
sS'186'
p1045
F3760401.644
sS'187'
p1046
F3813639275.0
sS'184'
p1047
F402066971.2
sS'185'
p1048
F4553854869.0
sS'188'
p1049
F49993044.81
sS'189'
p1050
F5812617.575
sS'1559'
p1051
F2735035.175
sS'869'
p1052
F295327246.5
sS'868'
p1053
F6242670.013
sS'861'
p1054
F513440.1022
sS'860'
p1055
F5185048.601
sS'863'
p1056
F9640439.285
sS'865'
p1057
F17170907.8
sS'864'
p1058
F3047329.444
sS'867'
p1059
F57584029.44
sS'866'
p1060
F153725953.2
sS'883'
p1061
F274677221.2
sS'882'
p1062
F41224982.3
sS'881'
p1063
F16915310.18
sS'880'
p1064
F64554182.24
sS'887'
p1065
F18512749.31
sS'886'
p1066
F10350555.16
sS'884'
p1067
F162925162.8
sS'889'
p1068
F16070318.83
sS'888'
p1069
F14407127.87
sS'775'
p1070
F43246558.5
sS'774'
p1071
F23567810.0
sS'776'
p1072
F8729693.601
sS'771'
p1073
F1428976.846
sS'770'
p1074
F13624805.26
sS'773'
p1075
F26471514.93
sS'772'
p1076
F71260078.83
sS'779'
p1077
F20692788.3
sS'778'
p1078
F203326243.3
sS'77'
p1079
F412762718.9
sS'76'
p1080
F28654884.26
sS'75'
p1081
F661300862.3
sS'74'
p1082
F524378490.8
sS'73'
p1083
F43345816.65
sS'72'
p1084
F13593284.14
sS'71'
p1085
F5992661.198
sS'70'
p1086
F1407835738.0
sS'79'
p1087
F10436146.61
sS'78'
p1088
F142142063.8
sS'1040'
p1089
F38682145.86
sS'1047'
p1090
F4793518.201
sS'1046'
p1091
F80551068.56
sS'1045'
p1092
F93343120.13
sS'1049'
p1093
F36214239.95
sS'1048'
p1094
F3739472.208
sS'1681'
p1095
F65632751.06
sS'1680'
p1096
F8754637.589
sS'1683'
p1097
F97436.37123
sS'1682'
p1098
F14065885.81
sS'1685'
p1099
F6006333.703
sS'1684'
p1100
F254896.4045
sS'1687'
p1101
F725668.114
sS'1686'
p1102
F1397928.194
sS'1689'
p1103
F3791179.519
sS'1688'
p1104
F4895042.277
sS'1269'
p1105
F416531498.7
sS'669'
p1106
F835405.4934
sS'668'
p1107
F88789350.53
sS'1263'
p1108
F15984144.68
sS'1262'
p1109
F192566373.0
sS'665'
p1110
F1962216.328
sS'1260'
p1111
F52460.91123
sS'663'
p1112
F7830456.798
sS'1266'
p1113
F54148444.63
sS'1265'
p1114
F44664248.4
sS'1264'
p1115
F11679705.75
sS'1469'
p1116
F6083234.422
sS'1468'
p1117
F1762105.495
sS'1464'
p1118
F2586795.311
sS'1461'
p1119
F4445722.459
sS'1460'
p1120
F27571024.7
sS'1463'
p1121
F131606.7931
sS'1462'
p1122
F17610123.98
sS'1316'
p1123
F11170850.33
sS'1315'
p1124
F257525.7439
sS'1314'
p1125
F16747361.15
sS'1313'
p1126
F102231672.2
sS'1312'
p1127
F19207238.41
sS'1311'
p1128
F46549875.75
sS'1310'
p1129
F129188285.5
sS'1319'
p1130
F1045861.495
sS'1015'
p1131
F2214339.203
sS'1011'
p1132
F3334981.673
sS'319'
p1133
F917090998.8
sS'318'
p1134
F418266749.4
sS'313'
p1135
F2506706920.0
sS'312'
p1136
F147107274.0
sS'311'
p1137
F614057306.6
sS'317'
p1138
F1940437097.0
sS'316'
p1139
F426714202.6
sS'315'
p1140
F17063729.59
sS'314'
p1141
F1343958786.0
sS'1335'
p1142
F1074641.298
sS'1334'
p1143
F26200289.27
sS'1336'
p1144
F1002809.054
sS'1330'
p1145
F15948679.85
sS'445'
p1146
F3140724.415
sS'1332'
p1147
F16528019.69
sS'632'
p1148
F379276275.2
sS'1861'
p1149
F7048472.22
sS'1860'
p1150
F214031.3534
sS'1863'
p1151
F1619858.776
sS'1862'
p1152
F1498703.03
sS'1865'
p1153
F2078314.369
sS'1864'
p1154
F1936706.12
sS'1867'
p1155
F5164997.727
sS'1866'
p1156
F1054553.185
sS'1869'
p1157
F268993.3335
sS'1868'
p1158
F1249991.442
sS'964'
p1159
F2097772.234
sS'966'
p1160
F9158927.263
sS'967'
p1161
F7223156.844
sS'960'
p1162
F8116715.469
sS'961'
p1163
F296697270.7
sS'962'
p1164
F112221706.8
sS'963'
p1165
F265315.2593
sS'968'
p1166
F64025384.0
sS'969'
p1167
F254329.5749
sS'1537'
p1168
F48081227.02
sS'878'
p1169
F24541951.16
sS'1240'
p1170
F191580.0828
sS'876'
p1171
F8776240.743
sS'874'
p1172
F3230147.037
sS'875'
p1173
F3973371.414
sS'872'
p1174
F3725058.128
sS'1243'
p1175
F7069857.893
sS'870'
p1176
F13831433.98
sS'871'
p1177
F3764148.803
sS'597'
p1178
F8236803.375
sS'1242'
p1179
F273674333.7
sS'9'
p1180
F2998634607.0
sS'1533'
p1181
F1671244.736
sS'1532'
p1182
F6124908.277
sS'892'
p1183
F66538186.02
sS'893'
p1184
F2515432.197
sS'894'
p1185
F683969.285
sS'895'
p1186
F19653281.71
sS'897'
p1187
F41373163.88
sS'898'
p1188
F149232681.8
sS'899'
p1189
F34011183.7
sS'1246'
p1190
F41468946.49
sS'1249'
p1191
F49237511.74
sS'1248'
p1192
F46511467.41
sS'641'
p1193
F10634102.49
sS'1788'
p1194
F444294.3245
sS'1789'
p1195
F40691.32516
sS'768'
p1196
F52771536.44
sS'769'
p1197
F558729294.6
sS'762'
p1198
F11423821.75
sS'763'
p1199
F189990004.3
sS'1782'
p1200
F1472576.875
sS'761'
p1201
F51032667.69
sS'1784'
p1202
F21565247.5
sS'767'
p1203
F17658685.17
sS'764'
p1204
F302413290.7
sS'765'
p1205
F1006186.441
sS'1078'
p1206
F593876.41
sS'1079'
p1207
F47202065.64
sS'1076'
p1208
F6866169.722
sS'1077'
p1209
F181176104.8
sS'1075'
p1210
F4171989.061
sS'1072'
p1211
F6723995.787
sS'1073'
p1212
F22479140.22
sS'1070'
p1213
F45134553.42
sS'1071'
p1214
F1304208.278
sS'1678'
p1215
F41574.00039
sS'1679'
p1216
F3154280.159
sS'1674'
p1217
F38866425.09
sS'1675'
p1218
F579196.7899
sS'1676'
p1219
F1614037.069
sS'1677'
p1220
F2332615.297
sS'1671'
p1221
F39721116.97
sS'1672'
p1222
F4496400.77
sS'1673'
p1223
F1219002.612
sS'1094'
p1224
F32192509.19
sS'1095'
p1225
F202988316.9
sS'1096'
p1226
F11703453.39
sS'1097'
p1227
F2439270.415
sS'1090'
p1228
F3420791.354
sS'1091'
p1229
F29935964.69
sS'1092'
p1230
F62027631.94
sS'1534'
p1231
F13562027.74
sS'674'
p1232
F57346921.09
sS'675'
p1233
F6558353.736
sS'677'
p1234
F378324.6447
sS'670'
p1235
F1988413.843
sS'1099'
p1236
F14147163.17
sS'672'
p1237
F6669825.019
sS'673'
p1238
F622550.9034
sS'1418'
p1239
F259460955.8
sS'1419'
p1240
F48489693.17
sS'1410'
p1241
F5753502.767
sS'1411'
p1242
F6842422.645
sS'1412'
p1243
F120166.1576
sS'1413'
p1244
F7595476.728
sS'1414'
p1245
F15365572.71
sS'1415'
p1246
F42603784.01
sS'1416'
p1247
F3444598123.0
sS'1417'
p1248
F1809348423.0
sS'1322'
p1249
F2034929.686
sS'1323'
p1250
F7559974.342
sS'1320'
p1251
F54078843.07
sS'1326'
p1252
F4015293.248
sS'1327'
p1253
F11224584.57
sS'1324'
p1254
F49529196.43
sS'1325'
p1255
F6670179.361
sS'1329'
p1256
F9142064.793
sS'5'
p1257
F1444011721.0
sS'1531'
p1258
F14932646.23
sS'1524'
p1259
F277940687.2
sS'1257'
p1260
F3815745.546
sS'1254'
p1261
F3447171.788
sS'1255'
p1262
F12085674.0
sS'1520'
p1263
F19277240.51
sS'1521'
p1264
F182670997.3
sS'1522'
p1265
F14175628.6
sS'1523'
p1266
F7513951.743
sS'1528'
p1267
F12224867.23
sS'1529'
p1268
F9073190.064
sS'1258'
p1269
F143285679.8
sS'1259'
p1270
F2585776.974
sS'308'
p1271
F338694.4535
sS'309'
p1272
F22231189.65
sS'300'
p1273
F154458721.7
sS'302'
p1274
F116614769.6
sS'303'
p1275
F6698038.06
sS'304'
p1276
F19145769.7
sS'305'
p1277
F996926067.5
sS'306'
p1278
F109639157.0
sS'307'
p1279
F701176536.7
sS'1792'
p1280
F165222.8127
sS'959'
p1281
F347419.9047
sS'958'
p1282
F9353698.212
sS'951'
p1283
F210073072.8
sS'950'
p1284
F16814725.6
sS'953'
p1285
F11037621.73
sS'952'
p1286
F130501452.8
sS'955'
p1287
F18106210.95
sS'954'
p1288
F18703892.12
sS'957'
p1289
F16204954.27
sS'956'
p1290
F36335802.89
sS'506'
p1291
F638570.3659
sS'507'
p1292
F15188286.32
sS'667'
p1293
F192425333.1
sS'666'
p1294
F121707634.2
sS'504'
p1295
F131884971.2
sS'1261'
p1296
F262970.2192
sS'1799'
p1297
F908686.8092
sS'1798'
p1298
F1618452.496
sS'719'
p1299
F225189420.6
sS'718'
p1300
F30048028.84
sS'717'
p1301
F338720834.2
sS'1267'
p1302
F1202748.325
sS'715'
p1303
F2722045.761
sS'1790'
p1304
F1101108.539
sS'713'
p1305
F27949368.92
sS'712'
p1306
F1989193222.0
sS'711'
p1307
F303327603.6
sS'710'
p1308
F21051246.4
sS'661'
p1309
F3207441.149
sS'716'
p1310
F4563246.005
sS'1060'
p1311
F2041575.265
sS'1063'
p1312
F1934603.591
sS'1062'
p1313
F88782511.26
sS'1065'
p1314
F5810231.187
sS'1064'
p1315
F34620631.64
sS'1067'
p1316
F58263110.12
sS'1066'
p1317
F207220316.6
sS'1669'
p1318
F123755.8841
sS'1667'
p1319
F16092943.52
sS'1666'
p1320
F2372739.133
sS'1665'
p1321
F6889.482453
sS'1664'
p1322
F22694070.73
sS'1663'
p1323
F22380004.92
sS'1662'
p1324
F1637915.175
sS'1661'
p1325
F239582.6138
sS'1660'
p1326
F375570.7015
sS'1087'
p1327
F38069407.29
sS'1086'
p1328
F161210032.8
sS'593'
p1329
F394619886.5
sS'592'
p1330
F15551811.42
sS'595'
p1331
F9040703.156
sS'594'
p1332
F2222989580.0
sS'1081'
p1333
F9363359.349
sS'596'
p1334
F8316866.13
sS'599'
p1335
F4089963.038
sS'598'
p1336
F24560705.9
sS'1089'
p1337
F10991940.58
sS'1088'
p1338
F1899619.136
sS'714'
p1339
F58836772.5
sS'1403'
p1340
F13860697.79
sS'1402'
p1341
F773045.0278
sS'1401'
p1342
F3481468.593
sS'1407'
p1343
F854169.6121
sS'1406'
p1344
F90743.10439
sS'1405'
p1345
F15809577.94
sS'1404'
p1346
F2374904.797
sS'1546'
p1347
F65566.79545
sS'449'
p1348
F86309515.28
sS'1339'
p1349
F37808072.67
sS'693'
p1350
F13512548.77
sS'443'
p1351
F62780587.95
sS'442'
p1352
F29898692.63
sS'441'
p1353
F715997821.6
sS'440'
p1354
F21423241.86
sS'447'
p1355
F196444052.2
sS'446'
p1356
F110376165.9
sS'1333'
p1357
F6917537.482
sS'444'
p1358
F59087402.31
sS'691'
p1359
F34710523.72
sS'697'
p1360
F96919823.79
sS'39'
p1361
F30463783.15
sS'38'
p1362
F117489434.2
sS'1540'
p1363
F35963.61244
sS'33'
p1364
F99898404.16
sS'32'
p1365
F34313994.26
sS'31'
p1366
F99202416.33
sS'30'
p1367
F170429088.2
sS'37'
p1368
F46719984.43
sS'36'
p1369
F64702164.94
sS'35'
p1370
F1937410214.0
sS'34'
p1371
F74339472.48
sS'1241'
p1372
F22428560.82
sS'640'
p1373
F35507909.8
sS'1535'
p1374
F34725925.99
sS'642'
p1375
F747616761.8
sS'645'
p1376
F10410559.48
sS'644'
p1377
F5485644.795
sS'1247'
p1378
F40512756.77
sS'646'
p1379
F1155200626.0
sS'649'
p1380
F20863343.32
sS'648'
p1381
F1018268446.0
sS'1539'
p1382
F2343865.974
sS'1538'
p1383
F1703190.754
sS'339'
p1384
F432874556.7
sS'338'
p1385
F14330258908.0
sS'335'
p1386
F1121536.945
sS'334'
p1387
F2546006.478
sS'337'
p1388
F315495488.7
sS'336'
p1389
F736682.0352
sS'330'
p1390
F20375874.78
sS'333'
p1391
F34116138.35
sS'332'
p1392
F23005628.98
sS'1026'
p1393
F1751993.807
sS'8'
p1394
F643448155.2
sS'1352'
p1395
F1407026.422
sS'1886'
p1396
F1112112.798
sS'1884'
p1397
F209024446.6
sS'1883'
p1398
F1424458.161
sS'1882'
p1399
F744441.6504
sS'1881'
p1400
F5072136.13
sS'1880'
p1401
F4440321.052
sS'948'
p1402
F198073308.4
sS'946'
p1403
F5236059.758
sS'947'
p1404
F81830679.49
sS'944'
p1405
F63546538.66
sS'942'
p1406
F590918.1813
sS'943'
p1407
F33111988.75
sS'940'
p1408
F13671812.27
sS'941'
p1409
F8953678.704
sS'133'
p1410
F2432208068.0
sS'132'
p1411
F722735656.1
sS'131'
p1412
F31086995.82
sS'130'
p1413
F256215550.4
sS'137'
p1414
F2200491.864
sS'136'
p1415
F4478941.92
sS'135'
p1416
F8892259.242
sS'134'
p1417
F19238795038.0
sS'139'
p1418
F4616051.911
sS'138'
p1419
F17608817.71
sS'1793'
p1420
F438291.5074
sS'1771'
p1421
F283383.4897
sS'708'
p1422
F347573954.0
sS'709'
p1423
F115880880.4
sS'704'
p1424
F1368930.701
sS'705'
p1425
F4487614.013
sS'706'
p1426
F266080571.8
sS'707'
p1427
F348390360.2
sS'700'
p1428
F177351267.1
sS'701'
p1429
F2181891523.0
sS'702'
p1430
F75583779.82
sS'703'
p1431
F6905441.199
sS'88'
p1432
F1608391724.0
sS'89'
p1433
F171229000000.0
sS'82'
p1434
F59472873.93
sS'83'
p1435
F13712879.28
sS'80'
p1436
F554029835.7
sS'81'
p1437
F126081535.7
sS'86'
p1438
F424102546.2
sS'84'
p1439
F54572203.5
sS'85'
p1440
F646059.7062
sS'1659'
p1441
F18610366.94
sS'1652'
p1442
F156544.2169
sS'1388'
p1443
F2711542.453
sS'1650'
p1444
F4678161.263
sS'1651'
p1445
F225696.2722
sS'1656'
p1446
F1443330.837
sS'1657'
p1447
F1172156.123
sS'1654'
p1448
F3987824.57
sS'1655'
p1449
F5837138.79
sS'586'
p1450
F545810.6579
sS'587'
p1451
F36069355.31
sS'584'
p1452
F260323.4737
sS'585'
p1453
F9218522.372
sS'582'
p1454
F38868795.21
sS'583'
p1455
F635127783.4
sS'1436'
p1456
F26006915.76
sS'1437'
p1457
F1893330.475
sS'1434'
p1458
F7070833.171
sS'1435'
p1459
F633162496.0
sS'1433'
p1460
F125666350.3
sS'1430'
p1461
F8181630.353
sS'1431'
p1462
F274102.1803
sS'1438'
p1463
F37581989.52
sS'1381'
p1464
F2383165.288
sS'1349'
p1465
F1174632.174
sS'458'
p1466
F826427444.4
sS'459'
p1467
F1284271567.0
sS'450'
p1468
F664943156.9
sS'451'
p1469
F82353125.56
sS'453'
p1470
F59398450.89
sS'1344'
p1471
F14278747.78
sS'1345'
p1472
F49729797.62
sS'456'
p1473
F10769476336.0
sS'457'
p1474
F512709263.9
sS'656'
p1475
F5957584.76
sS'1503'
p1476
F30872127.52
sS'654'
p1477
F13157354.32
sS'655'
p1478
F16721896.92
sS'1506'
p1479
F29711264.55
sS'1507'
p1480
F19794512.42
sS'650'
p1481
F78453498.1
sS'651'
p1482
F301129094.4
sS'1508'
p1483
F79477983.66
sS'658'
p1484
F1435707.246
sS'516'
p1485
F5463773.528
sS'1292'
p1486
F43473764.35
sS'322'
p1487
F598081152.8
sS'323'
p1488
F201261848.3
sS'320'
p1489
F407730402.9
sS'321'
p1490
F302079435.4
sS'326'
p1491
F326363583.2
sS'327'
p1492
F1038088011.0
sS'324'
p1493
F2013915.435
sS'325'
p1494
F22343088.23
sS'328'
p1495
F1316039932.0
sS'329'
p1496
F28802131.09
sS'1340'
p1497
F1453652.405
sS'995'
p1498
F128110559.1
sS'994'
p1499
F58740631.72
sS'997'
p1500
F47355599.77
sS'996'
p1501
F2646656.017
sS'991'
p1502
F17535763.88
sS'990'
p1503
F1128844516.0
sS'993'
p1504
F17286239.56
sS'992'
p1505
F2153737.053
sS'999'
p1506
F2530219.832
sS'998'
p1507
F211807.6896
sS'120'
p1508
F202645499.5
sS'121'
p1509
F2349195287.0
sS'122'
p1510
F263467310.5
sS'123'
p1511
F360765263.6
sS'124'
p1512
F1844974330.0
sS'125'
p1513
F996468334.7
sS'126'
p1514
F31090360.4
sS'127'
p1515
F2141309987.0
sS'128'
p1516
F841550787.1
sS'129'
p1517
F139614552.7
sS'1748'
p1518
F1296870.596
sS'1749'
p1519
F917670.7963
sS'1645'
p1520
F1674481.294
sS'1644'
p1521
F44706665.98
sS'1647'
p1522
F2443962.281
sS'1646'
p1523
F462011.0135
sS'1641'
p1524
F617518.0067
sS'1640'
p1525
F10947735.85
sS'1643'
p1526
F4231610.767
sS'1642'
p1527
F28636694.28
sS'1396'
p1528
F1239131.693
sS'1649'
p1529
F984319.8811
sS'1648'
p1530
F72233.53492
sS'1743'
p1531
F2096851.974
sS'1252'
p1532
F1047698.931
sS'578'
p1533
F6938104.744
sS'573'
p1534
F489394639.8
sS'572'
p1535
F160881854.1
sS'571'
p1536
F95124551.57
sS'570'
p1537
F7897933.935
sS'577'
p1538
F5222846.202
sS'576'
p1539
F1871416.638
sS'575'
p1540
F87042346.54
sS'601'
p1541
F15250955.2
sS'1208'
p1542
F16032063.26
sS'1421'
p1543
F2004684232.0
sS'1420'
p1544
F390774.8356
sS'1423'
p1545
F93219981.07
sS'1422'
p1546
F143067.8419
sS'1425'
p1547
F84057964.1
sS'1424'
p1548
F18931514.49
sS'1427'
p1549
F28070418.68
sS'1426'
p1550
F64082515.32
sS'1429'
p1551
F158126970.7
sS'1428'
p1552
F2676717.73
sS'731'
p1553
F81564453.85
sS'730'
p1554
F40757793.05
sS'733'
p1555
F226822676.5
sS'732'
p1556
F286749377.9
sS'735'
p1557
F15739191.33
sS'734'
p1558
F7116765.968
sS'737'
p1559
F176368458.8
sS'736'
p1560
F42238284.15
sS'739'
p1561
F426031.7988
sS'738'
p1562
F12554755.75
sS'1359'
p1563
F1832600602.0
sS'1358'
p1564
F13083150.05
sS'468'
p1565
F10369279.98
sS'1353'
p1566
F8559697.477
sS'464'
p1567
F109370168.3
sS'1351'
p1568
F100023064.2
sS'1350'
p1569
F3467289.137
sS'461'
p1570
F33943677.12
sS'460'
p1571
F74109181.61
sS'463'
p1572
F9525557.564
sS'608'
p1573
F2012390.045
sS'1519'
p1574
F11178499.09
sS'1518'
p1575
F1592159.107
sS'1515'
p1576
F12202093.97
sS'1514'
p1577
F2860897.864
sS'1517'
p1578
F12994098.49
sS'1516'
p1579
F643463.3741
sS'1511'
p1580
F34008354.83
sS'1510'
p1581
F1633194.357
sS'1513'
p1582
F3799806.023
sS'1512'
p1583
F32373628.22
sS'1735'
p1584
F5237247.328
sS'357'
p1585
F117193793.6
sS'356'
p1586
F6968187.987
sS'355'
p1587
F97047088.58
sS'354'
p1588
F7994605.438
sS'353'
p1589
F22382303.17
sS'352'
p1590
F2085423.728
sS'351'
p1591
F14968862.19
sS'350'
p1592
F250063935.7
sS'359'
p1593
F195998242.4
sS'358'
p1594
F333852.5744
sS'1446'
p1595
F7030236.089
sS'1445'
p1596
F310490.7021
sS'289'
p1597
F29148092.63
sS'288'
p1598
F399974679.7
sS'1112'
p1599
F1955559.894
sS'281'
p1600
F110959955.8
sS'280'
p1601
F3896850982.0
sS'283'
p1602
F791938276.2
sS'282'
p1603
F39348404.29
sS'285'
p1604
F3154994.438
sS'284'
p1605
F131333110.5
sS'287'
p1606
F25153263481.0
sS'286'
p1607
F1201329684.0
sS'263'
p1608
F997254060.3
sS'262'
p1609
F28004052.8
sS'261'
p1610
F259397462.4
sS'260'
p1611
F139838638.1
sS'267'
p1612
F1186231331.0
sS'266'
p1613
F787350567.5
sS'265'
p1614
F17578606.64
sS'264'
p1615
F638102529.4
sS'269'
p1616
F37697169.36
sS'268'
p1617
F16061323659.0
sS'1562'
p1618
F6366838.559
sS'1563'
p1619
F106789.3642
sS'1294'
p1620
F14883257.96
sS'1567'
p1621
F6876251.112
sS'988'
p1622
F77854958.57
sS'989'
p1623
F4705599.234
sS'982'
p1624
F4465004.787
sS'983'
p1625
F9755378.651
sS'980'
p1626
F2051765.751
sS'981'
p1627
F2371518.344
sS'986'
p1628
F32669550.48
sS'984'
p1629
F13093331.49
sS'985'
p1630
F3821701.336
sS'115'
p1631
F22272636510.0
sS'114'
p1632
F27957297.08
sS'117'
p1633
F4530678687.0
sS'116'
p1634
F5035245.834
sS'111'
p1635
F63604619.14
sS'110'
p1636
F95532439.54
sS'113'
p1637
F70272961.97
sS'112'
p1638
F2659492.781
sS'119'
p1639
F13169275.64
sS'118'
p1640
F3860744824.0
sS'1797'
p1641
F2094269.094
sS'1796'
p1642
F67691118.87
sS'1389'
p1643
F446682.0281
sS'1630'
p1644
F2817710.333
sS'1631'
p1645
F99306.81738
sS'1632'
p1646
F310112.5294
sS'1633'
p1647
F4465150.505
sS'1634'
p1648
F43936654.67
sS'1635'
p1649
F138213353.7
sS'1636'
p1650
F16222501.82
sS'1637'
p1651
F73082968.5
sS'1638'
p1652
F273497.7483
sS'1639'
p1653
F3750922.66
sS'568'
p1654
F1401975019.0
sS'569'
p1655
F58618782.25
sS'560'
p1656
F5309237.185
sS'561'
p1657
F293602705.3
sS'562'
p1658
F60619169.53
sS'563'
p1659
F48477762.25
sS'564'
p1660
F28906032.15
sS'565'
p1661
F39372280.16
sS'566'
p1662
F366977580.8
sS'567'
p1663
F100080317.2
sS'1188'
p1664
F2238354.132
sS'1189'
p1665
F6026708.952
sS'1186'
p1666
F43335217.77
sS'1187'
p1667
F48946849.47
sS'1184'
p1668
F347008.2333
sS'1185'
p1669
F1413320.587
sS'1182'
p1670
F32618557.34
sS'1183'
p1671
F9207039.178
sS'1180'
p1672
F186691.564
sS'1181'
p1673
F97871267.48
sS'726'
p1674
F27676311.88
sS'727'
p1675
F431155431.4
sS'724'
p1676
F6841657.783
sS'725'
p1677
F38809430.19
sS'722'
p1678
F902627.9508
sS'723'
p1679
F224386086.7
sS'720'
p1680
F22693989.21
sS'721'
p1681
F7737559.858
sS'1744'
p1682
F2753009.497
sS'1745'
p1683
F17007154.17
sS'1746'
p1684
F3491022.943
sS'1747'
p1685
F9095.939102
sS'1740'
p1686
F862409.0328
sS'1741'
p1687
F11164875.91
sS'728'
p1688
F125823773.8
sS'729'
p1689
F197303607.3
sS'1164'
p1690
F10660521.2
sS'1165'
p1691
F17861769.9
sS'1166'
p1692
F1003672479.0
sS'1160'
p1693
F16650907.4
sS'1161'
p1694
F5209903.594
sS'1162'
p1695
F3095542.04
sS'1163'
p1696
F250596915.8
sS'1168'
p1697
F29481477.13
sS'1169'
p1698
F12103128.62
sS'1366'
p1699
F3988858.13
sS'48'
p1700
F280548009.1
sS'49'
p1701
F70212893.91
sS'46'
p1702
F89671491.11
sS'47'
p1703
F9769652.257
sS'44'
p1704
F154918379.7
sS'45'
p1705
F42879979.43
sS'43'
p1706
F147873685.6
sS'40'
p1707
F69497925.21
sS'41'
p1708
F39681221.03
sS'1568'
p1709
F1057738.204
sS'1569'
p1710
F1307254.472
sS'1298'
p1711
F3506172.845
sS'1299'
p1712
F1390019.895
sS'1560'
p1713
F5919754.183
sS'1561'
p1714
F8129702.249
sS'1290'
p1715
F10645843.25
sS'1291'
p1716
F8271482.408
sS'1564'
p1717
F629188.0713
sS'1565'
p1718
F7655559.984
sS'1566'
p1719
F14457231.46
sS'477'
p1720
F25820383.29
sS'797'
p1721
F1725437.607
sS'474'
p1722
F31073539.49
sS'796'
p1723
F6558985.772
sS'475'
p1724
F106826883.1
sS'1711'
p1725
F5845687.977
sS'1710'
p1726
F48250.266
sS'1717'
p1727
F1783573.034
sS'1716'
p1728
F2423351.039
sS'791'
p1729
F4384946.967
sS'1201'
p1730
F2234027.382
sS'1714'
p1731
F1944705.684
sS'472'
p1732
F7116543.246
sS'473'
p1733
F1963474.928
sS'1364'
p1734
F58401149.76
sS'1365'
p1735
F2559814.409
sS'476'
p1736
F22095618.17
sS'1363'
p1737
F15910644.68
sS'1360'
p1738
F19342724.17
sS'1361'
p1739
F3861261.154
sS'478'
p1740
F17250616.79
sS'479'
p1741
F39875880.04
sS'1368'
p1742
F73590803.87
sS'1369'
p1743
F12631997.43
s.