(dp0
I1
cnumpy.core.multiarray
_reconstruct
p1
(cnumpy
ndarray
p2
(I0
tp3
S'b'
p4
tp5
Rp6
(I1
(I1
tp7
cnumpy
dtype
p8
(S'f8'
p9
I0
I1
tp10
Rp11
(I3
S'<'
p12
NNNI-1
I-1
I0
tp13
bI00
S'\x05\xfeF\xe3#|\x84@'
p14
tp15
bsI2
g1
(g2
(I0
tp16
g4
tp17
Rp18
(I1
(I1
tp19
g11
I00
S';r\x05\xe2UK\x82@'
p20
tp21
bsI3
g1
(g2
(I0
tp22
g4
tp23
Rp24
(I1
(I1
tp25
g11
I00
S'\x83\xb8ai\x1br\x84@'
p26
tp27
bsI4
g1
(g2
(I0
tp28
g4
tp29
Rp30
(I1
(I1
tp31
g11
I00
S'\xa2\x8d\x087\x99\xa4\x8d@'
p32
tp33
bsI5
g1
(g2
(I0
tp34
g4
tp35
Rp36
(I1
(I1
tp37
g11
I00
S'\xb2\x0e|\xde\x9cu\x82@'
p38
tp39
bsI6
g1
(g2
(I0
tp40
g4
tp41
Rp42
(I1
(I1
tp43
g11
I00
S'7yq)X%\x82@'
p44
tp45
bsI7
g1
(g2
(I0
tp46
g4
tp47
Rp48
(I1
(I1
tp49
g11
I00
S'\xca\xde\x8c\xce\x90L\x83@'
p50
tp51
bsI8
g1
(g2
(I0
tp52
g4
tp53
Rp54
(I1
(I1
tp55
g11
I00
S'\x92\xda\xe7j9\\\x81@'
p56
tp57
bsI9
g1
(g2
(I0
tp58
g4
tp59
Rp60
(I1
(I1
tp61
g11
I00
S'\xa4B*tbN\x86@'
p62
tp63
bsI10
g1
(g2
(I0
tp64
g4
tp65
Rp66
(I1
(I1
tp67
g11
I00
S',\x80Hc\xc0\x8b\x8f@'
p68
tp69
bsI11
g1
(g2
(I0
tp70
g4
tp71
Rp72
(I1
(I1
tp73
g11
I00
S'\xaeg\xda"\xf8\x1c\x92@'
p74
tp75
bsI12
g1
(g2
(I0
tp76
g4
tp77
Rp78
(I1
(I1
tp79
g11
I00
S'x\x08\x8d\xf3\x8d\x06\x94@'
p80
tp81
bsI13
g1
(g2
(I0
tp82
g4
tp83
Rp84
(I1
(I1
tp85
g11
I00
S'\x01\n\\Ix.\x92@'
p86
tp87
bsI14
g1
(g2
(I0
tp88
g4
tp89
Rp90
(I1
(I1
tp91
g11
I00
S'\xff\x0caI\xf8o\x92@'
p92
tp93
bsI15
g1
(g2
(I0
tp94
g4
tp95
Rp96
(I1
(I1
tp97
g11
I00
S'\xb4\xecch\xba\x19\x95@'
p98
tp99
bsI16
g1
(g2
(I0
tp100
g4
tp101
Rp102
(I1
(I1
tp103
g11
I00
S'\xea\xcf<\x90\xed7\x95@'
p104
tp105
bsI17
g1
(g2
(I0
tp106
g4
tp107
Rp108
(I1
(I1
tp109
g11
I00
S'B\x99\x87\xc7\xf2\xe9g@'
p110
tp111
bsI18
g1
(g2
(I0
tp112
g4
tp113
Rp114
(I1
(I1
tp115
g11
I00
S'\xae\x9f\xdd\xd22.\x93@'
p116
tp117
bsI19
g1
(g2
(I0
tp118
g4
tp119
Rp120
(I1
(I1
tp121
g11
I00
S'P\x8dw\xbd\xa5\x8a\x91@'
p122
tp123
bsI20
g1
(g2
(I0
tp124
g4
tp125
Rp126
(I1
(I1
tp127
g11
I00
S'S\x070\x08\xb70\x93@'
p128
tp129
bsI21
g1
(g2
(I0
tp130
g4
tp131
Rp132
(I1
(I1
tp133
g11
I00
S'L\x0f?\x98\xdf\xa0\x92@'
p134
tp135
bsI22
g1
(g2
(I0
tp136
g4
tp137
Rp138
(I1
(I1
tp139
g11
I00
S'\x89X\xed\xba\xd9\x1a\x95@'
p140
tp141
bsI23
g1
(g2
(I0
tp142
g4
tp143
Rp144
(I1
(I1
tp145
g11
I00
S'\x8ao\x87\x83}\\\x95@'
p146
tp147
bsI24
g1
(g2
(I0
tp148
g4
tp149
Rp150
(I1
(I1
tp151
g11
I00
S'  \x0f\xbfB\xbe\x96@'
p152
tp153
bsI25
g1
(g2
(I0
tp154
g4
tp155
Rp156
(I1
(I1
tp157
g11
I00
S'\x120\xf2C\x06\xe7\x97@'
p158
tp159
bsI26
g1
(g2
(I0
tp160
g4
tp161
Rp162
(I1
(I1
tp163
g11
I00
S'T\xc0.\xc4\xaa\xd6\x95@'
p164
tp165
bsI27
g1
(g2
(I0
tp166
g4
tp167
Rp168
(I1
(I1
tp169
g11
I00
S'k\x18\x00\x87\x0e\x0f\x9b@'
p170
tp171
bsI28
g1
(g2
(I0
tp172
g4
tp173
Rp174
(I1
(I1
tp175
g11
I00
S'\x8d\x0c\xae\xd2-\xc0\x92@'
p176
tp177
bsI29
g1
(g2
(I0
tp178
g4
tp179
Rp180
(I1
(I1
tp181
g11
I00
S'\x99\xa3\xd4\x8et\x9d\x92@'
p182
tp183
bsI30
g1
(g2
(I0
tp184
g4
tp185
Rp186
(I1
(I1
tp187
g11
I00
S'1Bj\xe5\xb3\xc3\x93@'
p188
tp189
bsI31
g1
(g2
(I0
tp190
g4
tp191
Rp192
(I1
(I1
tp193
g11
I00
S'f\x02U\x1b[\x8e\x99@'
p194
tp195
bsI32
g1
(g2
(I0
tp196
g4
tp197
Rp198
(I1
(I1
tp199
g11
I00
S'ly\xc0\xb1\x85\xd2\x95@'
p200
tp201
bsI33
g1
(g2
(I0
tp202
g4
tp203
Rp204
(I1
(I1
tp205
g11
I00
S'\x9f\x93\x85\xc23*\x87@'
p206
tp207
bsI34
g1
(g2
(I0
tp208
g4
tp209
Rp210
(I1
(I1
tp211
g11
I00
S'\xe6\x82F\x0b\xa5V\x8c@'
p212
tp213
bsI35
g1
(g2
(I0
tp214
g4
tp215
Rp216
(I1
(I1
tp217
g11
I00
S'\xe8\xf2\x14\x19\xc6\x94\x91@'
p218
tp219
bsI36
g1
(g2
(I0
tp220
g4
tp221
Rp222
(I1
(I1
tp223
g11
I00
S'x\x16< P\xca\x8a@'
p224
tp225
bsI37
g1
(g2
(I0
tp226
g4
tp227
Rp228
(I1
(I1
tp229
g11
I00
S'A=\xb3\x97\x8a\x8a\x92@'
p230
tp231
bsI38
g1
(g2
(I0
tp232
g4
tp233
Rp234
(I1
(I1
tp235
g11
I00
S'\x17Z\xe6\\\xb6z\x95@'
p236
tp237
bsI39
g1
(g2
(I0
tp238
g4
tp239
Rp240
(I1
(I1
tp241
g11
I00
S'\xc6\x989\xcd`=\x95@'
p242
tp243
bsI40
g1
(g2
(I0
tp244
g4
tp245
Rp246
(I1
(I1
tp247
g11
I00
S'\x9b\x90\x84\xfb5\x87\x9b@'
p248
tp249
bsI41
g1
(g2
(I0
tp250
g4
tp251
Rp252
(I1
(I1
tp253
g11
I00
S'\xaaH\xcc\xaf|\xee\x9a@'
p254
tp255
bsI42
g1
(g2
(I0
tp256
g4
tp257
Rp258
(I1
(I1
tp259
g11
I00
S'q\xb8\xce\xf1\x00\x0cm@'
p260
tp261
bsI43
g1
(g2
(I0
tp262
g4
tp263
Rp264
(I1
(I1
tp265
g11
I00
S'\xd9d`l\xf2\xdd\x96@'
p266
tp267
bsI44
g1
(g2
(I0
tp268
g4
tp269
Rp270
(I1
(I1
tp271
g11
I00
S'\xaat#8\xa1\x93\x91@'
p272
tp273
bsI45
g1
(g2
(I0
tp274
g4
tp275
Rp276
(I1
(I1
tp277
g11
I00
S"\x1b'{D\xbf}\x94@"
p278
tp279
bsI46
g1
(g2
(I0
tp280
g4
tp281
Rp282
(I1
(I1
tp283
g11
I00
S'\x17\x83q\xbe-\x12\x97@'
p284
tp285
bsI47
g1
(g2
(I0
tp286
g4
tp287
Rp288
(I1
(I1
tp289
g11
I00
S'.7A\x1eU\x9f\x9e@'
p290
tp291
bsI48
g1
(g2
(I0
tp292
g4
tp293
Rp294
(I1
(I1
tp295
g11
I00
S'S#\x0f\x19]\xa6\x96@'
p296
tp297
bsI49
g1
(g2
(I0
tp298
g4
tp299
Rp300
(I1
(I1
tp301
g11
I00
S'\xffw\xcaa\x8a\x00\x94@'
p302
tp303
bsI50
g1
(g2
(I0
tp304
g4
tp305
Rp306
(I1
(I1
tp307
g11
I00
S'\x11\xb1\xcf\xa30^\x9d@'
p308
tp309
bsI51
g1
(g2
(I0
tp310
g4
tp311
Rp312
(I1
(I1
tp313
g11
I00
S'\xc4KT\x11)\xf0\x98@'
p314
tp315
bsI52
g1
(g2
(I0
tp316
g4
tp317
Rp318
(I1
(I1
tp319
g11
I00
S'\x89\x14f\t8\xf4\x9e@'
p320
tp321
bsI53
g1
(g2
(I0
tp322
g4
tp323
Rp324
(I1
(I1
tp325
g11
I00
S'\x98g"\xa4\xf5X\x94@'
p326
tp327
bsI54
g1
(g2
(I0
tp328
g4
tp329
Rp330
(I1
(I1
tp331
g11
I00
S'\x8bk]\xde@\xf9\x95@'
p332
tp333
bsI55
g1
(g2
(I0
tp334
g4
tp335
Rp336
(I1
(I1
tp337
g11
I00
S'\xdb\x125.\x85\xae\x97@'
p338
tp339
bsI56
g1
(g2
(I0
tp340
g4
tp341
Rp342
(I1
(I1
tp343
g11
I00
S'\xdf\xf4\xca\x084\x08\x92@'
p344
tp345
bsI57
g1
(g2
(I0
tp346
g4
tp347
Rp348
(I1
(I1
tp349
g11
I00
S'^6R\x95i\xe2\x98@'
p350
tp351
bsI58
g1
(g2
(I0
tp352
g4
tp353
Rp354
(I1
(I1
tp355
g11
I00
S'\xafl\xfc\xad\x88\x7f\x92@'
p356
tp357
bsI59
g1
(g2
(I0
tp358
g4
tp359
Rp360
(I1
(I1
tp361
g11
I00
S'26\xc1\x00\xd9\xa5\x91@'
p362
tp363
bsI60
g1
(g2
(I0
tp364
g4
tp365
Rp366
(I1
(I1
tp367
g11
I00
S'B\xe4T\x90\xb9\xba\x93@'
p368
tp369
bsI61
g1
(g2
(I0
tp370
g4
tp371
Rp372
(I1
(I1
tp373
g11
I00
S'2D\x9ck/\xf5q@'
p374
tp375
bsI62
g1
(g2
(I0
tp376
g4
tp377
Rp378
(I1
(I1
tp379
g11
I00
S'\xe1\x8c8\xad\x108\x8d@'
p380
tp381
bsI63
g1
(g2
(I0
tp382
g4
tp383
Rp384
(I1
(I1
tp385
g11
I00
S'\xf9z\x90\xd9\x1ef\x8e@'
p386
tp387
bsI64
g1
(g2
(I0
tp388
g4
tp389
Rp390
(I1
(I1
tp391
g11
I00
S'Z\x0fTg\xf6\x0b\x8a@'
p392
tp393
bsI65
g1
(g2
(I0
tp394
g4
tp395
Rp396
(I1
(I1
tp397
g11
I00
S'\x8e\xd2\xe1\x0c~\xe6\x92@'
p398
tp399
bsI66
g1
(g2
(I0
tp400
g4
tp401
Rp402
(I1
(I1
tp403
g11
I00
S'\x06w\xe0\xf4T\x98\x95@'
p404
tp405
bsI67
g1
(g2
(I0
tp406
g4
tp407
Rp408
(I1
(I1
tp409
g11
I00
S'\xe4\xab\x1d\xe6\x97\xa3\x95@'
p410
tp411
bsI68
g1
(g2
(I0
tp412
g4
tp413
Rp414
(I1
(I1
tp415
g11
I00
S'pR\x7f\x1f\xf5\xf9\x92@'
p416
tp417
bsI69
g1
(g2
(I0
tp418
g4
tp419
Rp420
(I1
(I1
tp421
g11
I00
S'\xcd\xc14@J\xbe\x94@'
p422
tp423
bsI70
g1
(g2
(I0
tp424
g4
tp425
Rp426
(I1
(I1
tp427
g11
I00
S'4l\xd0\xfeOL\x95@'
p428
tp429
bsI71
g1
(g2
(I0
tp430
g4
tp431
Rp432
(I1
(I1
tp433
g11
I00
S'\x0e[H||\xe2\x93@'
p434
tp435
bsI72
g1
(g2
(I0
tp436
g4
tp437
Rp438
(I1
(I1
tp439
g11
I00
S'\x9d\xe6\xf4\\\xe7\xa4\x96@'
p440
tp441
bsI73
g1
(g2
(I0
tp442
g4
tp443
Rp444
(I1
(I1
tp445
g11
I00
S'\x9e\xf5E\xbco\xc8\x99@'
p446
tp447
bsI74
g1
(g2
(I0
tp448
g4
tp449
Rp450
(I1
(I1
tp451
g11
I00
S'\xfb\x19\xd7 \xbe\xe2\x9b@'
p452
tp453
bsI75
g1
(g2
(I0
tp454
g4
tp455
Rp456
(I1
(I1
tp457
g11
I00
S'\x89I\x9d=\xe9\xe8n@'
p458
tp459
bsI76
g1
(g2
(I0
tp460
g4
tp461
Rp462
(I1
(I1
tp463
g11
I00
S'\xcf\x9b:\x97\x83\xbb|@'
p464
tp465
bsI77
g1
(g2
(I0
tp466
g4
tp467
Rp468
(I1
(I1
tp469
g11
I00
S'lf\x87\xb1T\xf9\x85@'
p470
tp471
bsI78
g1
(g2
(I0
tp472
g4
tp473
Rp474
(I1
(I1
tp475
g11
I00
S'9\x95\xca\xdf#\x06\x8b@'
p476
tp477
bsI79
g1
(g2
(I0
tp478
g4
tp479
Rp480
(I1
(I1
tp481
g11
I00
S'\xb3\x12\xfb{"\xb5\x84@'
p482
tp483
bsI80
g1
(g2
(I0
tp484
g4
tp485
Rp486
(I1
(I1
tp487
g11
I00
S'\x1d\xb1\xb8wc\xf5\x81@'
p488
tp489
bsI81
g1
(g2
(I0
tp490
g4
tp491
Rp492
(I1
(I1
tp493
g11
I00
S'\xc8\x9b\n\xd3\x02\x85\x82@'
p494
tp495
bsI82
g1
(g2
(I0
tp496
g4
tp497
Rp498
(I1
(I1
tp499
g11
I00
S'\xd0\x9d./\xaf\x01\x7f@'
p500
tp501
bsI83
g1
(g2
(I0
tp502
g4
tp503
Rp504
(I1
(I1
tp505
g11
I00
S'\xbb\xfd\xd2j\xf4\x10\x80@'
p506
tp507
bsI84
g1
(g2
(I0
tp508
g4
tp509
Rp510
(I1
(I1
tp511
g11
I00
S'\x1e6\xa5o\x8c\x9c\x89@'
p512
tp513
bsI85
g1
(g2
(I0
tp514
g4
tp515
Rp516
(I1
(I1
tp517
g11
I00
S'Y23a\xe5I\x8f@'
p518
tp519
bsI86
g1
(g2
(I0
tp520
g4
tp521
Rp522
(I1
(I1
tp523
g11
I00
S'H\xc9\x1cg\xc6\xdc\x91@'
p524
tp525
bsI87
g1
(g2
(I0
tp526
g4
tp527
Rp528
(I1
(I1
tp529
g11
I00
S'\x14..t0\xde\x92@'
p530
tp531
bsI88
g1
(g2
(I0
tp532
g4
tp533
Rp534
(I1
(I1
tp535
g11
I00
S'[&K{\xba\x08\x82@'
p536
tp537
bsI89
g1
(g2
(I0
tp538
g4
tp539
Rp540
(I1
(I1
tp541
g11
I00
S'\xee\x05X\xee+\x11\x8b@'
p542
tp543
bsI90
g1
(g2
(I0
tp544
g4
tp545
Rp546
(I1
(I1
tp547
g11
I00
S'Co\x1c\xae\xae\xaa\x8d@'
p548
tp549
bsI91
g1
(g2
(I0
tp550
g4
tp551
Rp552
(I1
(I1
tp553
g11
I00
S'\xc4\x1e\xfe\xa6.\xb0\x82@'
p554
tp555
bsI92
g1
(g2
(I0
tp556
g4
tp557
Rp558
(I1
(I1
tp559
g11
I00
S'\x15{\xecy\xbe4\x8c@'
p560
tp561
bsI93
g1
(g2
(I0
tp562
g4
tp563
Rp564
(I1
(I1
tp565
g11
I00
S'<\xa9\xda\xc0\x0bf\x90@'
p566
tp567
bsI94
g1
(g2
(I0
tp568
g4
tp569
Rp570
(I1
(I1
tp571
g11
I00
S'\xaa\xf9G\x17,\x90\x88@'
p572
tp573
bsI95
g1
(g2
(I0
tp574
g4
tp575
Rp576
(I1
(I1
tp577
g11
I00
S'\x14\x8b\xdbR#~h@'
p578
tp579
bsI96
g1
(g2
(I0
tp580
g4
tp581
Rp582
(I1
(I1
tp583
g11
I00
S'W\xedRe\xc8\x8d\x84@'
p584
tp585
bsI97
g1
(g2
(I0
tp586
g4
tp587
Rp588
(I1
(I1
tp589
g11
I00
S'2"\xd7\x063\xdc\x83@'
p590
tp591
bsI98
g1
(g2
(I0
tp592
g4
tp593
Rp594
(I1
(I1
tp595
g11
I00
S'w\xb9@\x9c&\x81\x85@'
p596
tp597
bsI99
g1
(g2
(I0
tp598
g4
tp599
Rp600
(I1
(I1
tp601
g11
I00
S'\xa2\xac8\xcd\x8c\xb2c@'
p602
tp603
bsI100
g1
(g2
(I0
tp604
g4
tp605
Rp606
(I1
(I1
tp607
g11
I00
S'k\xa4\xdcn\xbc\xdfI@'
p608
tp609
bsI101
g1
(g2
(I0
tp610
g4
tp611
Rp612
(I1
(I1
tp613
g11
I00
S'U\x82Z(\x8e\x8bx@'
p614
tp615
bsI102
g1
(g2
(I0
tp616
g4
tp617
Rp618
(I1
(I1
tp619
g11
I00
S'`\xa6\x8c\xd7\x0b\x91}@'
p620
tp621
bsI103
g1
(g2
(I0
tp622
g4
tp623
Rp624
(I1
(I1
tp625
g11
I00
S'\xf3\xfdA\xe9V\xa1z@'
p626
tp627
bsI104
g1
(g2
(I0
tp628
g4
tp629
Rp630
(I1
(I1
tp631
g11
I00
S'\x07\xc7\xc88\xe0\xf8o@'
p632
tp633
bsI105
g1
(g2
(I0
tp634
g4
tp635
Rp636
(I1
(I1
tp637
g11
I00
S'\xf7Q\x03\xd5\xe8D\x95@'
p638
tp639
bsI106
g1
(g2
(I0
tp640
g4
tp641
Rp642
(I1
(I1
tp643
g11
I00
S'\x8dg\xf2d\x0f\xfb\x89@'
p644
tp645
bsI107
g1
(g2
(I0
tp646
g4
tp647
Rp648
(I1
(I1
tp649
g11
I00
S'1\xef\xd0K\x8ag\x84@'
p650
tp651
bsI108
g1
(g2
(I0
tp652
g4
tp653
Rp654
(I1
(I1
tp655
g11
I00
S'\xdb.\x7f\x7f\x15\xdfY@'
p656
tp657
bsI109
g1
(g2
(I0
tp658
g4
tp659
Rp660
(I1
(I1
tp661
g11
I00
S'\xbb\x84A\x7f1\xc2j@'
p662
tp663
bsI110
g1
(g2
(I0
tp664
g4
tp665
Rp666
(I1
(I1
tp667
g11
I00
S'K\x98\x06\xf63\x1dj@'
p668
tp669
bsI111
g1
(g2
(I0
tp670
g4
tp671
Rp672
(I1
(I1
tp673
g11
I00
S'\xe1\xde\xf6\xf3+\x91w@'
p674
tp675
bsI112
g1
(g2
(I0
tp676
g4
tp677
Rp678
(I1
(I1
tp679
g11
I00
S'z4~\xbb\xf8\xbbw@'
p680
tp681
bsI113
g1
(g2
(I0
tp682
g4
tp683
Rp684
(I1
(I1
tp685
g11
I00
S'\xa7\xfd\xdb.\xe1\xb1~@'
p686
tp687
bsI114
g1
(g2
(I0
tp688
g4
tp689
Rp690
(I1
(I1
tp691
g11
I00
S'\xd20\xf5\x1b\xea\xa9\x90@'
p692
tp693
bsI115
g1
(g2
(I0
tp694
g4
tp695
Rp696
(I1
(I1
tp697
g11
I00
S'\xa68:\x18\xba\x84\x86@'
p698
tp699
bsI116
g1
(g2
(I0
tp700
g4
tp701
Rp702
(I1
(I1
tp703
g11
I00
S'\xebkqv\xe2>\x93@'
p704
tp705
bsI117
g1
(g2
(I0
tp706
g4
tp707
Rp708
(I1
(I1
tp709
g11
I00
S'\x8e,\x81\xbe\x9fT\x95@'
p710
tp711
bsI118
g1
(g2
(I0
tp712
g4
tp713
Rp714
(I1
(I1
tp715
g11
I00
S'\x83\x86\xf6\xe5\x8cg\x92@'
p716
tp717
bsI119
g1
(g2
(I0
tp718
g4
tp719
Rp720
(I1
(I1
tp721
g11
I00
S'\xb0T\xd4 \x85\x05W@'
p722
tp723
bsI120
g1
(g2
(I0
tp724
g4
tp725
Rp726
(I1
(I1
tp727
g11
I00
S'Vt`\x1bMSn@'
p728
tp729
bsI121
g1
(g2
(I0
tp730
g4
tp731
Rp732
(I1
(I1
tp733
g11
I00
S"'\xac\x94V\xcf\xadp@"
p734
tp735
bsI122
g1
(g2
(I0
tp736
g4
tp737
Rp738
(I1
(I1
tp739
g11
I00
S'\xc7\x80\xe7\xc5F\xbca@'
p740
tp741
bsI123
g1
(g2
(I0
tp742
g4
tp743
Rp744
(I1
(I1
tp745
g11
I00
S'\x17\x0b\xda-y\xa9\x86@'
p746
tp747
bsI124
g1
(g2
(I0
tp748
g4
tp749
Rp750
(I1
(I1
tp751
g11
I00
S':\x07\xa4\xcbZ\x87c@'
p752
tp753
bsI125
g1
(g2
(I0
tp754
g4
tp755
Rp756
(I1
(I1
tp757
g11
I00
S'\x1e\xd2\xb8\x16\xb5\x9fb@'
p758
tp759
bsI126
g1
(g2
(I0
tp760
g4
tp761
Rp762
(I1
(I1
tp763
g11
I00
S'\xcd\xec.Z\xde|p@'
p764
tp765
bs.